ARM GAS  E:\Users\Preston\Documents\AppData\Local\Temp\ccW6aDBy.s 			page 1


   1              		.cpu cortex-m7
   2              		.eabi_attribute 28, 1
   3              		.eabi_attribute 20, 1
   4              		.eabi_attribute 21, 1
   5              		.eabi_attribute 23, 3
   6              		.eabi_attribute 24, 1
   7              		.eabi_attribute 25, 1
   8              		.eabi_attribute 26, 1
   9              		.eabi_attribute 30, 2
  10              		.eabi_attribute 34, 1
  11              		.eabi_attribute 18, 4
  12              		.file	"miku.cpp"
  13              		.text
  14              	.Ltext0:
  15              		.cfi_sections	.debug_frame
  16              		.section	.text._ZN5daisy9DaisySeedD2Ev,"axG",%progbits,_ZN5daisy9DaisySeedD5Ev,comdat
  17              		.align	1
  18              		.p2align 2,,3
  19              		.weak	_ZN5daisy9DaisySeedD2Ev
  20              		.arch armv7e-m
  21              		.syntax unified
  22              		.thumb
  23              		.thumb_func
  24              		.fpu fpv5-d16
  26              	_ZN5daisy9DaisySeedD2Ev:
  27              	.LVL0:
  28              	.LFB2555:
  29              		.file 1 "lib/libDaisy/src/daisy_seed.h"
   1:lib/libDaisy/src/daisy_seed.h **** #pragma once
   2:lib/libDaisy/src/daisy_seed.h **** #ifndef DSY_SEED_H
   3:lib/libDaisy/src/daisy_seed.h **** #define DSY_SEED_H
   4:lib/libDaisy/src/daisy_seed.h **** 
   5:lib/libDaisy/src/daisy_seed.h **** #include "daisy.h"
   6:lib/libDaisy/src/daisy_seed.h **** 
   7:lib/libDaisy/src/daisy_seed.h **** //Uncomment this out if you're still using the rev2 hardware
   8:lib/libDaisy/src/daisy_seed.h **** //#define SEED_REV2
   9:lib/libDaisy/src/daisy_seed.h **** 
  10:lib/libDaisy/src/daisy_seed.h **** namespace daisy
  11:lib/libDaisy/src/daisy_seed.h **** {
  12:lib/libDaisy/src/daisy_seed.h **** /**
  13:lib/libDaisy/src/daisy_seed.h ****    @brief This is the higher-level interface for the Daisy board. \n 
  14:lib/libDaisy/src/daisy_seed.h ****     All basic peripheral configuration/initialization is setup here. \n
  15:lib/libDaisy/src/daisy_seed.h **** 
  16:lib/libDaisy/src/daisy_seed.h ****    @ingroup boards
  17:lib/libDaisy/src/daisy_seed.h **** */
  18:lib/libDaisy/src/daisy_seed.h **** class DaisySeed
  19:lib/libDaisy/src/daisy_seed.h **** {
  20:lib/libDaisy/src/daisy_seed.h ****   public:
  21:lib/libDaisy/src/daisy_seed.h ****     DaisySeed() {}
  22:lib/libDaisy/src/daisy_seed.h ****     ~DaisySeed() {}
  30              		.loc 1 22 5 view -0
  31              		.cfi_startproc
  32              		@ args = 0, pretend = 0, frame = 0
  33              		@ frame_needed = 0, uses_anonymous_args = 0
  34              		@ link register save eliminated.
  35              	.LBB496:
  36              	.LBI496:
ARM GAS  E:\Users\Preston\Documents\AppData\Local\Temp\ccW6aDBy.s 			page 2


  37              		.file 2 "lib/libDaisy/src/sys/system.h"
   1:lib/libDaisy/src/sys/system.h **** #ifndef DSY_SYSTEM_H
   2:lib/libDaisy/src/sys/system.h **** #define DSY_SYSTEM_H
   3:lib/libDaisy/src/sys/system.h **** 
   4:lib/libDaisy/src/sys/system.h **** #ifndef UNIT_TEST // for unit tests, a dummy implementation is provided below
   5:lib/libDaisy/src/sys/system.h **** 
   6:lib/libDaisy/src/sys/system.h **** #include <cstdint>
   7:lib/libDaisy/src/sys/system.h **** #include "per/tim.h"
   8:lib/libDaisy/src/sys/system.h **** 
   9:lib/libDaisy/src/sys/system.h **** namespace daisy
  10:lib/libDaisy/src/sys/system.h **** {
  11:lib/libDaisy/src/sys/system.h **** /** A handle for interacting with the Core System.
  12:lib/libDaisy/src/sys/system.h ****  ** This includes the Clock tree, MPU, global DMA initialization,
  13:lib/libDaisy/src/sys/system.h ****  ** cache handling, and any other necessary global initiailzation
  14:lib/libDaisy/src/sys/system.h ****  **
  15:lib/libDaisy/src/sys/system.h ****  ** @author shensley
  16:lib/libDaisy/src/sys/system.h ****  ** @ingroup system
  17:lib/libDaisy/src/sys/system.h ****  */
  18:lib/libDaisy/src/sys/system.h **** class System
  19:lib/libDaisy/src/sys/system.h **** {
  20:lib/libDaisy/src/sys/system.h ****   public:
  21:lib/libDaisy/src/sys/system.h ****     /** Contains settings for initializing the System */
  22:lib/libDaisy/src/sys/system.h ****     struct Config
  23:lib/libDaisy/src/sys/system.h ****     {
  24:lib/libDaisy/src/sys/system.h ****         /** Specifies the system clock frequency that feeds APB/AHB clocks, etc. */
  25:lib/libDaisy/src/sys/system.h ****         enum class SysClkFreq
  26:lib/libDaisy/src/sys/system.h ****         {
  27:lib/libDaisy/src/sys/system.h ****             FREQ_400MHZ,
  28:lib/libDaisy/src/sys/system.h ****             FREQ_480MHZ,
  29:lib/libDaisy/src/sys/system.h ****         };
  30:lib/libDaisy/src/sys/system.h **** 
  31:lib/libDaisy/src/sys/system.h ****         /** Method to call on the struct to set to defaults
  32:lib/libDaisy/src/sys/system.h ****          ** CPU Freq set to 400MHz
  33:lib/libDaisy/src/sys/system.h ****          ** Cache Enabled
  34:lib/libDaisy/src/sys/system.h ****          ** */
  35:lib/libDaisy/src/sys/system.h ****         void Defaults()
  36:lib/libDaisy/src/sys/system.h ****         {
  37:lib/libDaisy/src/sys/system.h ****             cpu_freq    = SysClkFreq::FREQ_400MHZ;
  38:lib/libDaisy/src/sys/system.h ****             use_dcache  = true;
  39:lib/libDaisy/src/sys/system.h ****             use_icache  = true;
  40:lib/libDaisy/src/sys/system.h ****             skip_clocks = false;
  41:lib/libDaisy/src/sys/system.h ****         }
  42:lib/libDaisy/src/sys/system.h **** 
  43:lib/libDaisy/src/sys/system.h ****         /** Method to call on the struct to set to boost mode:
  44:lib/libDaisy/src/sys/system.h ****          ** CPU Freq set to 480MHz
  45:lib/libDaisy/src/sys/system.h ****          ** Cache Enabled
  46:lib/libDaisy/src/sys/system.h ****          ** */
  47:lib/libDaisy/src/sys/system.h ****         void Boost()
  48:lib/libDaisy/src/sys/system.h ****         {
  49:lib/libDaisy/src/sys/system.h ****             cpu_freq    = SysClkFreq::FREQ_480MHZ;
  50:lib/libDaisy/src/sys/system.h ****             use_dcache  = true;
  51:lib/libDaisy/src/sys/system.h ****             use_icache  = true;
  52:lib/libDaisy/src/sys/system.h ****             skip_clocks = false;
  53:lib/libDaisy/src/sys/system.h ****         }
  54:lib/libDaisy/src/sys/system.h **** 
  55:lib/libDaisy/src/sys/system.h ****         SysClkFreq cpu_freq;
  56:lib/libDaisy/src/sys/system.h ****         bool       use_dcache;
ARM GAS  E:\Users\Preston\Documents\AppData\Local\Temp\ccW6aDBy.s 			page 3


  57:lib/libDaisy/src/sys/system.h ****         bool       use_icache;
  58:lib/libDaisy/src/sys/system.h ****         bool       skip_clocks;
  59:lib/libDaisy/src/sys/system.h ****     };
  60:lib/libDaisy/src/sys/system.h **** 
  61:lib/libDaisy/src/sys/system.h ****     /** Describes the different regions of memory available to the Daisy */
  62:lib/libDaisy/src/sys/system.h ****     enum MemoryRegion
  63:lib/libDaisy/src/sys/system.h ****     {
  64:lib/libDaisy/src/sys/system.h ****         INTERNAL_FLASH = 0,
  65:lib/libDaisy/src/sys/system.h ****         ITCMRAM,
  66:lib/libDaisy/src/sys/system.h ****         DTCMRAM,
  67:lib/libDaisy/src/sys/system.h ****         SRAM_D1,
  68:lib/libDaisy/src/sys/system.h ****         SRAM_D2,
  69:lib/libDaisy/src/sys/system.h ****         SRAM_D3,
  70:lib/libDaisy/src/sys/system.h ****         SDRAM,
  71:lib/libDaisy/src/sys/system.h ****         QSPI,
  72:lib/libDaisy/src/sys/system.h ****         INVALID_ADDRESS,
  73:lib/libDaisy/src/sys/system.h ****     };
  74:lib/libDaisy/src/sys/system.h **** 
  75:lib/libDaisy/src/sys/system.h ****     /** Bootloader struct for controlling bootloading parameters */
  76:lib/libDaisy/src/sys/system.h ****     struct BootInfo
  77:lib/libDaisy/src/sys/system.h ****     {
  78:lib/libDaisy/src/sys/system.h ****         enum class Type : uint32_t
  79:lib/libDaisy/src/sys/system.h ****         {
  80:lib/libDaisy/src/sys/system.h ****             INVALID      = 0x00000000,
  81:lib/libDaisy/src/sys/system.h ****             JUMP         = 0xDEADBEEF,
  82:lib/libDaisy/src/sys/system.h ****             SKIP_TIMEOUT = 0x5AFEB007,
  83:lib/libDaisy/src/sys/system.h ****             INF_TIMEOUT  = 0xB0074EFA,
  84:lib/libDaisy/src/sys/system.h ****         } status;
  85:lib/libDaisy/src/sys/system.h ****         uint32_t data;
  86:lib/libDaisy/src/sys/system.h ****         enum class Version : uint32_t
  87:lib/libDaisy/src/sys/system.h ****         {
  88:lib/libDaisy/src/sys/system.h ****             LT_v6_0 = 0, // Less than v6.0
  89:lib/libDaisy/src/sys/system.h ****             NONE,        // No bootloader present
  90:lib/libDaisy/src/sys/system.h ****             v6_0,        // v6.0
  91:lib/libDaisy/src/sys/system.h ****             v6_1,        // v6.1 or greater
  92:lib/libDaisy/src/sys/system.h ****             LAST
  93:lib/libDaisy/src/sys/system.h ****         } version;
  94:lib/libDaisy/src/sys/system.h ****     };
  95:lib/libDaisy/src/sys/system.h **** 
  96:lib/libDaisy/src/sys/system.h ****     System() {}
  97:lib/libDaisy/src/sys/system.h ****     ~System() {}
  38              		.loc 2 97 5 view .LVU1
  39              		.loc 2 97 5 is_stmt 0 view .LVU2
  40              	.LBE496:
  41              	.LBB497:
  42              	.LBI497:
  43              		.file 3 "lib/libDaisy/src/hid/usb.h"
   1:lib/libDaisy/src/hid/usb.h **** #pragma once
   2:lib/libDaisy/src/hid/usb.h **** #ifndef DSY_HID_USB_H
   3:lib/libDaisy/src/hid/usb.h **** #define DSY_HID_USB_H
   4:lib/libDaisy/src/hid/usb.h **** #include <stdint.h>
   5:lib/libDaisy/src/hid/usb.h **** #include <stdlib.h>
   6:lib/libDaisy/src/hid/usb.h **** 
   7:lib/libDaisy/src/hid/usb.h **** namespace daisy
   8:lib/libDaisy/src/hid/usb.h **** /** @addtogroup human_interface
   9:lib/libDaisy/src/hid/usb.h ****     @{
  10:lib/libDaisy/src/hid/usb.h **** */
ARM GAS  E:\Users\Preston\Documents\AppData\Local\Temp\ccW6aDBy.s 			page 4


  11:lib/libDaisy/src/hid/usb.h **** 
  12:lib/libDaisy/src/hid/usb.h **** {
  13:lib/libDaisy/src/hid/usb.h **** /** 
  14:lib/libDaisy/src/hid/usb.h ****     @brief Interface for initializing and using the USB Peripherals on the daisy
  15:lib/libDaisy/src/hid/usb.h ****     @author Stephen Hensley
  16:lib/libDaisy/src/hid/usb.h ****     @date December 2019
  17:lib/libDaisy/src/hid/usb.h **** */
  18:lib/libDaisy/src/hid/usb.h **** class UsbHandle
  19:lib/libDaisy/src/hid/usb.h **** {
  20:lib/libDaisy/src/hid/usb.h ****   public:
  21:lib/libDaisy/src/hid/usb.h ****     /** Return values for USBHandle Functions */
  22:lib/libDaisy/src/hid/usb.h ****     enum class Result
  23:lib/libDaisy/src/hid/usb.h ****     {
  24:lib/libDaisy/src/hid/usb.h ****         OK,
  25:lib/libDaisy/src/hid/usb.h ****         ERR,
  26:lib/libDaisy/src/hid/usb.h ****     };
  27:lib/libDaisy/src/hid/usb.h **** 
  28:lib/libDaisy/src/hid/usb.h ****     /** Specified which of the two USB Peripherals to initialize. */
  29:lib/libDaisy/src/hid/usb.h ****     enum UsbPeriph
  30:lib/libDaisy/src/hid/usb.h ****     {
  31:lib/libDaisy/src/hid/usb.h ****         FS_INTERNAL, /**< Internal pin */
  32:lib/libDaisy/src/hid/usb.h ****         FS_EXTERNAL, /**< FS External D+ pin is Pin 38 (GPIO32). FS External D- pin is Pin 37 (GPIO
  33:lib/libDaisy/src/hid/usb.h ****         FS_BOTH,     /**< Both */
  34:lib/libDaisy/src/hid/usb.h ****     };
  35:lib/libDaisy/src/hid/usb.h **** 
  36:lib/libDaisy/src/hid/usb.h **** 
  37:lib/libDaisy/src/hid/usb.h ****     /** Function called upon reception of a buffer */
  38:lib/libDaisy/src/hid/usb.h ****     typedef void (*ReceiveCallback)(uint8_t* buff, uint32_t* len);
  39:lib/libDaisy/src/hid/usb.h **** 
  40:lib/libDaisy/src/hid/usb.h ****     UsbHandle() {}
  41:lib/libDaisy/src/hid/usb.h **** 
  42:lib/libDaisy/src/hid/usb.h ****     ~UsbHandle() {}
  44              		.loc 3 42 5 is_stmt 1 view .LVU3
  45              		.loc 3 42 5 is_stmt 0 view .LVU4
  46              	.LBE497:
  47              	.LBB498:
  48              	.LBI498:
  49              		.file 4 "lib/libDaisy/src/per/adc.h"
   1:lib/libDaisy/src/per/adc.h **** #pragma once
   2:lib/libDaisy/src/per/adc.h **** #ifndef DSY_ADC_H
   3:lib/libDaisy/src/per/adc.h **** #define DSY_ADC_H /**< Macro */
   4:lib/libDaisy/src/per/adc.h **** #include <stdint.h>
   5:lib/libDaisy/src/per/adc.h **** #include <stdlib.h>
   6:lib/libDaisy/src/per/adc.h **** #include "daisy_core.h"
   7:lib/libDaisy/src/per/adc.h **** #include "per/gpio.h"
   8:lib/libDaisy/src/per/adc.h **** 
   9:lib/libDaisy/src/per/adc.h **** #define DSY_ADC_MAX_CHANNELS 16 /**< Maximum number of ADC channels */
  10:lib/libDaisy/src/per/adc.h **** 
  11:lib/libDaisy/src/per/adc.h **** namespace daisy
  12:lib/libDaisy/src/per/adc.h **** {
  13:lib/libDaisy/src/per/adc.h **** /** @addtogroup per_analog
  14:lib/libDaisy/src/per/adc.h ****     @{
  15:lib/libDaisy/src/per/adc.h **** */
  16:lib/libDaisy/src/per/adc.h **** 
  17:lib/libDaisy/src/per/adc.h **** /* While there may not be many configuration options here,
  18:lib/libDaisy/src/per/adc.h **** using a struct like this allows us to add more configuration
  19:lib/libDaisy/src/per/adc.h **** later without breaking existing functionality.
ARM GAS  E:\Users\Preston\Documents\AppData\Local\Temp\ccW6aDBy.s 			page 5


  20:lib/libDaisy/src/per/adc.h **** */
  21:lib/libDaisy/src/per/adc.h **** 
  22:lib/libDaisy/src/per/adc.h **** /** @brief   Configuration Structure for an ADC Channel 
  23:lib/libDaisy/src/per/adc.h ****  *  @details This can be used to configure a a single input, 
  24:lib/libDaisy/src/per/adc.h ****  *           or a multiplexed input, allowing up to 8 inputs on 
  25:lib/libDaisy/src/per/adc.h ****  *           one channel.
  26:lib/libDaisy/src/per/adc.h ****  *  @note    Sharing data lines to multiple muxes _is_ possible, but
  27:lib/libDaisy/src/per/adc.h ****  *           each channel sharing data lines must be set to the maximum
  28:lib/libDaisy/src/per/adc.h ****  *           number of channels, even if some multiplexers have fewer
  29:lib/libDaisy/src/per/adc.h ****  *           inputs connected.
  30:lib/libDaisy/src/per/adc.h **** */
  31:lib/libDaisy/src/per/adc.h **** struct AdcChannelConfig
  32:lib/libDaisy/src/per/adc.h **** {
  33:lib/libDaisy/src/per/adc.h ****     /** Which pin to use for multiplexing */
  34:lib/libDaisy/src/per/adc.h ****     enum MuxPin
  35:lib/libDaisy/src/per/adc.h ****     {
  36:lib/libDaisy/src/per/adc.h ****         MUX_SEL_0,    /**< & */
  37:lib/libDaisy/src/per/adc.h ****         MUX_SEL_1,    /**< & */
  38:lib/libDaisy/src/per/adc.h ****         MUX_SEL_2,    /**< & */
  39:lib/libDaisy/src/per/adc.h ****         MUX_SEL_LAST, /**< & */
  40:lib/libDaisy/src/per/adc.h ****     };
  41:lib/libDaisy/src/per/adc.h **** 
  42:lib/libDaisy/src/per/adc.h ****     /** \brief per channel conversion speed added to fixed time based on bitdepth, etc. */
  43:lib/libDaisy/src/per/adc.h ****     enum ConversionSpeed
  44:lib/libDaisy/src/per/adc.h ****     {
  45:lib/libDaisy/src/per/adc.h ****         SPEED_1CYCLES_5,
  46:lib/libDaisy/src/per/adc.h ****         SPEED_2CYCLES_5,
  47:lib/libDaisy/src/per/adc.h ****         SPEED_8CYCLES_5,
  48:lib/libDaisy/src/per/adc.h ****         SPEED_16CYCLES_5,
  49:lib/libDaisy/src/per/adc.h ****         SPEED_32CYCLES_5,
  50:lib/libDaisy/src/per/adc.h ****         SPEED_64CYCLES_5,
  51:lib/libDaisy/src/per/adc.h ****         SPEED_387CYCLES_5,
  52:lib/libDaisy/src/per/adc.h ****         SPEED_810CYCLES_5,
  53:lib/libDaisy/src/per/adc.h ****     };
  54:lib/libDaisy/src/per/adc.h **** 
  55:lib/libDaisy/src/per/adc.h ****     /** Initializes a single ADC pin as an ADC. 
  56:lib/libDaisy/src/per/adc.h ****     \param pin Pin to init.
  57:lib/libDaisy/src/per/adc.h ****     \param speed conversion speed for this pin defaults to 8.5 cycles
  58:lib/libDaisy/src/per/adc.h ****      */
  59:lib/libDaisy/src/per/adc.h ****     void InitSingle(dsy_gpio_pin pin, ConversionSpeed speed = SPEED_8CYCLES_5);
  60:lib/libDaisy/src/per/adc.h **** 
  61:lib/libDaisy/src/per/adc.h ****     /** 
  62:lib/libDaisy/src/per/adc.h ****     Initializes a single ADC pin as a Multiplexed ADC.
  63:lib/libDaisy/src/per/adc.h ****     Requires a CD405X Multiplexer connected to the pin.
  64:lib/libDaisy/src/per/adc.h ****     You only need to supply the mux pins that are required,
  65:lib/libDaisy/src/per/adc.h ****     e.g. a 4052 mux would only require mux_0 and mux_1.
  66:lib/libDaisy/src/per/adc.h ****     Internal Callbacks handle the pin addressing.
  67:lib/libDaisy/src/per/adc.h ****     \param adc_pin &
  68:lib/libDaisy/src/per/adc.h ****     \param mux_channels must be 1-8
  69:lib/libDaisy/src/per/adc.h ****     \param mux_0 First mux pin
  70:lib/libDaisy/src/per/adc.h ****     \param mux_1 Second mux pin
  71:lib/libDaisy/src/per/adc.h ****     \param mux_2 Third mux pin
  72:lib/libDaisy/src/per/adc.h ****     \param speed conversion speed for this pin defaults to 8.5 cycles
  73:lib/libDaisy/src/per/adc.h ****     */
  74:lib/libDaisy/src/per/adc.h ****     void InitMux(dsy_gpio_pin    adc_pin,
  75:lib/libDaisy/src/per/adc.h ****                  size_t          mux_channels,
  76:lib/libDaisy/src/per/adc.h ****                  dsy_gpio_pin    mux_0,
ARM GAS  E:\Users\Preston\Documents\AppData\Local\Temp\ccW6aDBy.s 			page 6


  77:lib/libDaisy/src/per/adc.h ****                  dsy_gpio_pin    mux_1 = {DSY_GPIOX, 0},
  78:lib/libDaisy/src/per/adc.h ****                  dsy_gpio_pin    mux_2 = {DSY_GPIOX, 0},
  79:lib/libDaisy/src/per/adc.h ****                  ConversionSpeed speed = SPEED_8CYCLES_5);
  80:lib/libDaisy/src/per/adc.h **** 
  81:lib/libDaisy/src/per/adc.h ****     dsy_gpio        pin_;                   /**< & */
  82:lib/libDaisy/src/per/adc.h ****     dsy_gpio        mux_pin_[MUX_SEL_LAST]; /**< & */
  83:lib/libDaisy/src/per/adc.h ****     uint8_t         mux_channels_;          /**< & */
  84:lib/libDaisy/src/per/adc.h ****     ConversionSpeed speed_;
  85:lib/libDaisy/src/per/adc.h **** };
  86:lib/libDaisy/src/per/adc.h **** 
  87:lib/libDaisy/src/per/adc.h **** /**
  88:lib/libDaisy/src/per/adc.h ****    @brief Handler for analog to digital conversion
  89:lib/libDaisy/src/per/adc.h **** */
  90:lib/libDaisy/src/per/adc.h **** class AdcHandle
  91:lib/libDaisy/src/per/adc.h **** {
  92:lib/libDaisy/src/per/adc.h ****   public:
  93:lib/libDaisy/src/per/adc.h ****     /** Supported oversampling amounts */
  94:lib/libDaisy/src/per/adc.h ****     enum OverSampling
  95:lib/libDaisy/src/per/adc.h ****     {
  96:lib/libDaisy/src/per/adc.h ****         OVS_NONE, /**< & */
  97:lib/libDaisy/src/per/adc.h ****         OVS_4,    /**< & */
  98:lib/libDaisy/src/per/adc.h ****         OVS_8,    /**< & */
  99:lib/libDaisy/src/per/adc.h ****         OVS_16,   /**< & */
 100:lib/libDaisy/src/per/adc.h ****         OVS_32,   /**< & */
 101:lib/libDaisy/src/per/adc.h ****         OVS_64,   /**< & */
 102:lib/libDaisy/src/per/adc.h ****         OVS_128,  /**< & */
 103:lib/libDaisy/src/per/adc.h ****         OVS_256,  /**< & */
 104:lib/libDaisy/src/per/adc.h ****         OVS_512,  /**< & */
 105:lib/libDaisy/src/per/adc.h ****         OVS_1024, /**< & */
 106:lib/libDaisy/src/per/adc.h ****         OVS_LAST, /**< & */
 107:lib/libDaisy/src/per/adc.h ****     };
 108:lib/libDaisy/src/per/adc.h **** 
 109:lib/libDaisy/src/per/adc.h ****     AdcHandle() {}
 110:lib/libDaisy/src/per/adc.h ****     ~AdcHandle() {}
  50              		.loc 4 110 5 is_stmt 1 view .LVU5
  51              		.loc 4 110 5 is_stmt 0 view .LVU6
  52              	.LBE498:
  53              	.LBB499:
  54              	.LBI499:
  55              		.file 5 "lib/libDaisy/src/hid/audio.h"
   1:lib/libDaisy/src/hid/audio.h **** #ifndef DSY_AUDIO_H
   2:lib/libDaisy/src/hid/audio.h **** #define DSY_AUDIO_H /**< & */
   3:lib/libDaisy/src/hid/audio.h **** 
   4:lib/libDaisy/src/hid/audio.h **** #include "per/sai.h"
   5:lib/libDaisy/src/hid/audio.h **** 
   6:lib/libDaisy/src/hid/audio.h **** namespace daisy
   7:lib/libDaisy/src/hid/audio.h **** {
   8:lib/libDaisy/src/hid/audio.h **** /** @brief Audio Engine Handle
   9:lib/libDaisy/src/hid/audio.h ****  *  @ingroup audio 
  10:lib/libDaisy/src/hid/audio.h ****  *  @details This class allows for higher level access to an audio engine.
  11:lib/libDaisy/src/hid/audio.h ****  *           If you're using a SOM like the DaisySeed or DaisyPatchSM (or any 
  12:lib/libDaisy/src/hid/audio.h ****  *            board that includes one of those objects) then the intialization
  13:lib/libDaisy/src/hid/audio.h ****  *            is already taken  care of.
  14:lib/libDaisy/src/hid/audio.h ****  *           If you're setting up your own custom hardware, or need to make changes
  15:lib/libDaisy/src/hid/audio.h ****  *           you will have to take the following steps:
  16:lib/libDaisy/src/hid/audio.h ****  *             1. Create and Initialize an SaiHandle or two depending on your requirements
  17:lib/libDaisy/src/hid/audio.h ****  *             2. Initialize the Audio Handle with the desired settings and the Initialized SaiHand
ARM GAS  E:\Users\Preston\Documents\AppData\Local\Temp\ccW6aDBy.s 			page 7


  18:lib/libDaisy/src/hid/audio.h ****  *             3. If the connected codec requires special configuration or initialization, do so
  19:lib/libDaisy/src/hid/audio.h ****  *             4. Write a callback method using either the AudioCallback or the InterleavingAudioCa
  20:lib/libDaisy/src/hid/audio.h ****  *             5. Start the Audio using one of the StartAudio function
  21:lib/libDaisy/src/hid/audio.h ****  */
  22:lib/libDaisy/src/hid/audio.h **** class AudioHandle
  23:lib/libDaisy/src/hid/audio.h **** {
  24:lib/libDaisy/src/hid/audio.h ****   public:
  25:lib/libDaisy/src/hid/audio.h ****     /** Manually configurable details about the Audio Engine */
  26:lib/libDaisy/src/hid/audio.h ****     /** TODO: Figure out how to get samplerate in here. */
  27:lib/libDaisy/src/hid/audio.h ****     struct Config
  28:lib/libDaisy/src/hid/audio.h ****     {
  29:lib/libDaisy/src/hid/audio.h ****         /** number of samples to process per callback */
  30:lib/libDaisy/src/hid/audio.h ****         size_t blocksize;
  31:lib/libDaisy/src/hid/audio.h **** 
  32:lib/libDaisy/src/hid/audio.h ****         /**< Sample rate of audio */
  33:lib/libDaisy/src/hid/audio.h ****         SaiHandle::Config::SampleRate samplerate;
  34:lib/libDaisy/src/hid/audio.h **** 
  35:lib/libDaisy/src/hid/audio.h ****         /** factor for adjustment before and after callback for hardware that may have extra headro
  36:lib/libDaisy/src/hid/audio.h ****         float postgain;
  37:lib/libDaisy/src/hid/audio.h **** 
  38:lib/libDaisy/src/hid/audio.h ****         /** factor for additional one-sided compensation to audio path for hardware that may
  39:lib/libDaisy/src/hid/audio.h ****          *  have unequal input/output ranges
  40:lib/libDaisy/src/hid/audio.h ****          */
  41:lib/libDaisy/src/hid/audio.h ****         float output_compensation;
  42:lib/libDaisy/src/hid/audio.h **** 
  43:lib/libDaisy/src/hid/audio.h ****         /** Sets default values for config struct */
  44:lib/libDaisy/src/hid/audio.h ****         Config()
  45:lib/libDaisy/src/hid/audio.h ****         : blocksize(48),
  46:lib/libDaisy/src/hid/audio.h ****           samplerate(SaiHandle::Config::SampleRate::SAI_48KHZ),
  47:lib/libDaisy/src/hid/audio.h ****           postgain(1.f),
  48:lib/libDaisy/src/hid/audio.h ****           output_compensation(1.f)
  49:lib/libDaisy/src/hid/audio.h ****         {
  50:lib/libDaisy/src/hid/audio.h ****         }
  51:lib/libDaisy/src/hid/audio.h ****     };
  52:lib/libDaisy/src/hid/audio.h **** 
  53:lib/libDaisy/src/hid/audio.h ****     enum class Result
  54:lib/libDaisy/src/hid/audio.h ****     {
  55:lib/libDaisy/src/hid/audio.h ****         OK,
  56:lib/libDaisy/src/hid/audio.h ****         ERR,
  57:lib/libDaisy/src/hid/audio.h ****     };
  58:lib/libDaisy/src/hid/audio.h **** 
  59:lib/libDaisy/src/hid/audio.h ****     /** Non-Interleaving input buffer
  60:lib/libDaisy/src/hid/audio.h ****      * Buffer arranged by float[chn][sample] 
  61:lib/libDaisy/src/hid/audio.h ****      * const so that the user can't modify the input
  62:lib/libDaisy/src/hid/audio.h ****      */
  63:lib/libDaisy/src/hid/audio.h ****     typedef const float* const* InputBuffer;
  64:lib/libDaisy/src/hid/audio.h **** 
  65:lib/libDaisy/src/hid/audio.h ****     /** Non-Interleaving output buffer
  66:lib/libDaisy/src/hid/audio.h ****      * Arranged by float[chn][sample] 
  67:lib/libDaisy/src/hid/audio.h ****      */
  68:lib/libDaisy/src/hid/audio.h ****     typedef float** OutputBuffer;
  69:lib/libDaisy/src/hid/audio.h **** 
  70:lib/libDaisy/src/hid/audio.h ****     /** Type for a Non-Interleaving audio callback 
  71:lib/libDaisy/src/hid/audio.h ****      * Non-Interleaving audio callbacks in daisy will be of this type
  72:lib/libDaisy/src/hid/audio.h ****      */
  73:lib/libDaisy/src/hid/audio.h ****     typedef void (*AudioCallback)(InputBuffer  in,
  74:lib/libDaisy/src/hid/audio.h ****                                   OutputBuffer out,
ARM GAS  E:\Users\Preston\Documents\AppData\Local\Temp\ccW6aDBy.s 			page 8


  75:lib/libDaisy/src/hid/audio.h ****                                   size_t       size);
  76:lib/libDaisy/src/hid/audio.h **** 
  77:lib/libDaisy/src/hid/audio.h ****     /** Interleaving Input buffer
  78:lib/libDaisy/src/hid/audio.h ****      ** audio is prepared as { L0, R0, L1, R1, . . . LN, RN }]
  79:lib/libDaisy/src/hid/audio.h ****      ** this is const, as the user shouldn't modify it
  80:lib/libDaisy/src/hid/audio.h ****     */
  81:lib/libDaisy/src/hid/audio.h ****     typedef const float* InterleavingInputBuffer;
  82:lib/libDaisy/src/hid/audio.h **** 
  83:lib/libDaisy/src/hid/audio.h ****     /** Interleaving Output buffer 
  84:lib/libDaisy/src/hid/audio.h ****      ** audio is prepared as { L0, R0, L1, R1, . . . LN, RN }
  85:lib/libDaisy/src/hid/audio.h ****     */
  86:lib/libDaisy/src/hid/audio.h ****     typedef float* InterleavingOutputBuffer;
  87:lib/libDaisy/src/hid/audio.h **** 
  88:lib/libDaisy/src/hid/audio.h ****     /** Interleaving Audio Callback 
  89:lib/libDaisy/src/hid/audio.h ****      * Interleaving audio callbacks in daisy must be of this type
  90:lib/libDaisy/src/hid/audio.h ****      */
  91:lib/libDaisy/src/hid/audio.h ****     typedef void (*InterleavingAudioCallback)(InterleavingInputBuffer  in,
  92:lib/libDaisy/src/hid/audio.h ****                                               InterleavingOutputBuffer out,
  93:lib/libDaisy/src/hid/audio.h ****                                               size_t                   size);
  94:lib/libDaisy/src/hid/audio.h **** 
  95:lib/libDaisy/src/hid/audio.h ****     AudioHandle() : pimpl_(nullptr) {}
  96:lib/libDaisy/src/hid/audio.h ****     ~AudioHandle() {}
  56              		.loc 5 96 5 is_stmt 1 view .LVU7
  57              		.loc 5 96 5 is_stmt 0 view .LVU8
  58              	.LBE499:
  59              		.loc 1 22 19 view .LVU9
  60 0000 7047     		bx	lr
  61              		.cfi_endproc
  62              	.LFE2555:
  64              		.weak	_ZN5daisy9DaisySeedD1Ev
  65              		.thumb_set _ZN5daisy9DaisySeedD1Ev,_ZN5daisy9DaisySeedD2Ev
  66 0002 00BF     		.section	.text._ZN5daisy11OledDisplayINS_13SSD130xDriverILj128ELj64ENS_19SSD130xI2CTransportEEEE4F
  67              		.align	1
  68              		.p2align 2,,3
  69              		.weak	_ZN5daisy11OledDisplayINS_13SSD130xDriverILj128ELj64ENS_19SSD130xI2CTransportEEEE4FillEb
  70              		.syntax unified
  71              		.thumb
  72              		.thumb_func
  73              		.fpu fpv5-d16
  75              	_ZN5daisy11OledDisplayINS_13SSD130xDriverILj128ELj64ENS_19SSD130xI2CTransportEEEE4FillEb:
  76              	.LVL1:
  77              	.LFB2633:
  78              		.file 6 "lib/libDaisy/src/hid/disp/oled_display.h"
   1:lib/libDaisy/src/hid/disp/oled_display.h **** #pragma once
   2:lib/libDaisy/src/hid/disp/oled_display.h **** #ifndef DSY_OLED_DISPLAY_H
   3:lib/libDaisy/src/hid/disp/oled_display.h **** #define DSY_OLED_DISPLAY_H /**< Macro */
   4:lib/libDaisy/src/hid/disp/oled_display.h **** 
   5:lib/libDaisy/src/hid/disp/oled_display.h **** #include "display.h"
   6:lib/libDaisy/src/hid/disp/oled_display.h **** 
   7:lib/libDaisy/src/hid/disp/oled_display.h **** namespace daisy
   8:lib/libDaisy/src/hid/disp/oled_display.h **** {
   9:lib/libDaisy/src/hid/disp/oled_display.h **** /** 
  10:lib/libDaisy/src/hid/disp/oled_display.h ****  * This class is for drawing to a monochrome OLED display. 
  11:lib/libDaisy/src/hid/disp/oled_display.h ****  * @ingroup device
  12:lib/libDaisy/src/hid/disp/oled_display.h **** */
  13:lib/libDaisy/src/hid/disp/oled_display.h **** template <typename DisplayDriver>
  14:lib/libDaisy/src/hid/disp/oled_display.h **** class OledDisplay : public OneBitGraphicsDisplayImpl<OledDisplay<DisplayDriver>>
ARM GAS  E:\Users\Preston\Documents\AppData\Local\Temp\ccW6aDBy.s 			page 9


  15:lib/libDaisy/src/hid/disp/oled_display.h **** {
  16:lib/libDaisy/src/hid/disp/oled_display.h ****   public:
  17:lib/libDaisy/src/hid/disp/oled_display.h ****     OledDisplay() {}
  18:lib/libDaisy/src/hid/disp/oled_display.h ****     virtual ~OledDisplay() {}
  19:lib/libDaisy/src/hid/disp/oled_display.h **** 
  20:lib/libDaisy/src/hid/disp/oled_display.h ****     struct Config
  21:lib/libDaisy/src/hid/disp/oled_display.h ****     {
  22:lib/libDaisy/src/hid/disp/oled_display.h ****         typename DisplayDriver::Config driver_config;
  23:lib/libDaisy/src/hid/disp/oled_display.h ****     };
  24:lib/libDaisy/src/hid/disp/oled_display.h **** 
  25:lib/libDaisy/src/hid/disp/oled_display.h ****     void Init(Config config) { driver_.Init(config.driver_config); }
  26:lib/libDaisy/src/hid/disp/oled_display.h **** 
  27:lib/libDaisy/src/hid/disp/oled_display.h ****     uint16_t Height() const override { return driver_.Height(); }
  28:lib/libDaisy/src/hid/disp/oled_display.h ****     uint16_t Width() const override { return driver_.Width(); }
  29:lib/libDaisy/src/hid/disp/oled_display.h **** 
  30:lib/libDaisy/src/hid/disp/oled_display.h ****     /** 
  31:lib/libDaisy/src/hid/disp/oled_display.h ****     Fills the entire display with either on/off.
  32:lib/libDaisy/src/hid/disp/oled_display.h ****     \param on Sets on or off.
  33:lib/libDaisy/src/hid/disp/oled_display.h ****     */
  34:lib/libDaisy/src/hid/disp/oled_display.h ****     void Fill(bool on) override { driver_.Fill(on); }
  79              		.loc 6 34 10 is_stmt 1 view -0
  80              		.cfi_startproc
  81              		@ args = 0, pretend = 0, frame = 0
  82              		@ frame_needed = 0, uses_anonymous_args = 0
  83              		@ link register save eliminated.
  84              	.LBB500:
  85              	.LBI500:
  86              		.file 7 "lib/libDaisy/src/dev/oled_ssd130x.h"
   1:lib/libDaisy/src/dev/oled_ssd130x.h **** #pragma once
   2:lib/libDaisy/src/dev/oled_ssd130x.h **** #ifndef SA_OLED_SSD130X_H
   3:lib/libDaisy/src/dev/oled_ssd130x.h **** #define SA_OLED_SSD130X_H /**< & */
   4:lib/libDaisy/src/dev/oled_ssd130x.h **** 
   5:lib/libDaisy/src/dev/oled_ssd130x.h **** #include "per/i2c.h"
   6:lib/libDaisy/src/dev/oled_ssd130x.h **** #include "per/spi.h"
   7:lib/libDaisy/src/dev/oled_ssd130x.h **** #include "per/gpio.h"
   8:lib/libDaisy/src/dev/oled_ssd130x.h **** #include "sys/system.h"
   9:lib/libDaisy/src/dev/oled_ssd130x.h **** 
  10:lib/libDaisy/src/dev/oled_ssd130x.h **** namespace daisy
  11:lib/libDaisy/src/dev/oled_ssd130x.h **** {
  12:lib/libDaisy/src/dev/oled_ssd130x.h **** /**
  13:lib/libDaisy/src/dev/oled_ssd130x.h ****  * I2C Transport for SSD1306 / SSD1309 OLED display devices
  14:lib/libDaisy/src/dev/oled_ssd130x.h ****  */
  15:lib/libDaisy/src/dev/oled_ssd130x.h **** class SSD130xI2CTransport
  16:lib/libDaisy/src/dev/oled_ssd130x.h **** {
  17:lib/libDaisy/src/dev/oled_ssd130x.h ****   public:
  18:lib/libDaisy/src/dev/oled_ssd130x.h ****     struct Config
  19:lib/libDaisy/src/dev/oled_ssd130x.h ****     {
  20:lib/libDaisy/src/dev/oled_ssd130x.h ****         Config()
  21:lib/libDaisy/src/dev/oled_ssd130x.h ****         {
  22:lib/libDaisy/src/dev/oled_ssd130x.h ****             // Intialize using defaults
  23:lib/libDaisy/src/dev/oled_ssd130x.h ****             Defaults();
  24:lib/libDaisy/src/dev/oled_ssd130x.h ****         }
  25:lib/libDaisy/src/dev/oled_ssd130x.h ****         I2CHandle::Config i2c_config;
  26:lib/libDaisy/src/dev/oled_ssd130x.h ****         uint8_t           i2c_address;
  27:lib/libDaisy/src/dev/oled_ssd130x.h ****         void              Defaults()
  28:lib/libDaisy/src/dev/oled_ssd130x.h ****         {
  29:lib/libDaisy/src/dev/oled_ssd130x.h ****             i2c_config.periph         = I2CHandle::Config::Peripheral::I2C_1;
ARM GAS  E:\Users\Preston\Documents\AppData\Local\Temp\ccW6aDBy.s 			page 10


  30:lib/libDaisy/src/dev/oled_ssd130x.h ****             i2c_config.speed          = I2CHandle::Config::Speed::I2C_1MHZ;
  31:lib/libDaisy/src/dev/oled_ssd130x.h ****             i2c_config.mode           = I2CHandle::Config::Mode::I2C_MASTER;
  32:lib/libDaisy/src/dev/oled_ssd130x.h ****             i2c_config.pin_config.scl = {DSY_GPIOB, 8};
  33:lib/libDaisy/src/dev/oled_ssd130x.h ****             i2c_config.pin_config.sda = {DSY_GPIOB, 9};
  34:lib/libDaisy/src/dev/oled_ssd130x.h ****             i2c_address               = 0x3C;
  35:lib/libDaisy/src/dev/oled_ssd130x.h ****         }
  36:lib/libDaisy/src/dev/oled_ssd130x.h ****     };
  37:lib/libDaisy/src/dev/oled_ssd130x.h ****     void Init(const Config& config)
  38:lib/libDaisy/src/dev/oled_ssd130x.h ****     {
  39:lib/libDaisy/src/dev/oled_ssd130x.h ****         i2c_address_ = config.i2c_address;
  40:lib/libDaisy/src/dev/oled_ssd130x.h ****         i2c_.Init(config.i2c_config);
  41:lib/libDaisy/src/dev/oled_ssd130x.h ****     };
  42:lib/libDaisy/src/dev/oled_ssd130x.h ****     void SendCommand(uint8_t cmd)
  43:lib/libDaisy/src/dev/oled_ssd130x.h ****     {
  44:lib/libDaisy/src/dev/oled_ssd130x.h ****         uint8_t buf[2] = {0X00, cmd};
  45:lib/libDaisy/src/dev/oled_ssd130x.h ****         i2c_.TransmitBlocking(i2c_address_, buf, 2, 1000);
  46:lib/libDaisy/src/dev/oled_ssd130x.h ****     };
  47:lib/libDaisy/src/dev/oled_ssd130x.h **** 
  48:lib/libDaisy/src/dev/oled_ssd130x.h ****     void SendData(uint8_t* buff, size_t size)
  49:lib/libDaisy/src/dev/oled_ssd130x.h ****     {
  50:lib/libDaisy/src/dev/oled_ssd130x.h ****         for(size_t i = 0; i < size; i++)
  51:lib/libDaisy/src/dev/oled_ssd130x.h ****         {
  52:lib/libDaisy/src/dev/oled_ssd130x.h ****             uint8_t buf[2] = {0X40, buff[i]};
  53:lib/libDaisy/src/dev/oled_ssd130x.h ****             i2c_.TransmitBlocking(i2c_address_, buf, 2, 1000);
  54:lib/libDaisy/src/dev/oled_ssd130x.h ****         }
  55:lib/libDaisy/src/dev/oled_ssd130x.h ****     };
  56:lib/libDaisy/src/dev/oled_ssd130x.h **** 
  57:lib/libDaisy/src/dev/oled_ssd130x.h ****   private:
  58:lib/libDaisy/src/dev/oled_ssd130x.h ****     daisy::I2CHandle i2c_;
  59:lib/libDaisy/src/dev/oled_ssd130x.h ****     uint8_t          i2c_address_;
  60:lib/libDaisy/src/dev/oled_ssd130x.h **** };
  61:lib/libDaisy/src/dev/oled_ssd130x.h **** 
  62:lib/libDaisy/src/dev/oled_ssd130x.h **** /**
  63:lib/libDaisy/src/dev/oled_ssd130x.h ****  * 4 Wire SPI Transport for SSD1306 / SSD1309 OLED display devices
  64:lib/libDaisy/src/dev/oled_ssd130x.h ****  */
  65:lib/libDaisy/src/dev/oled_ssd130x.h **** class SSD130x4WireSpiTransport
  66:lib/libDaisy/src/dev/oled_ssd130x.h **** {
  67:lib/libDaisy/src/dev/oled_ssd130x.h ****   public:
  68:lib/libDaisy/src/dev/oled_ssd130x.h ****     struct Config
  69:lib/libDaisy/src/dev/oled_ssd130x.h ****     {
  70:lib/libDaisy/src/dev/oled_ssd130x.h ****         Config()
  71:lib/libDaisy/src/dev/oled_ssd130x.h ****         {
  72:lib/libDaisy/src/dev/oled_ssd130x.h ****             // Initialize using defaults
  73:lib/libDaisy/src/dev/oled_ssd130x.h ****             Defaults();
  74:lib/libDaisy/src/dev/oled_ssd130x.h ****         }
  75:lib/libDaisy/src/dev/oled_ssd130x.h ****         SpiHandle::Config spi_config;
  76:lib/libDaisy/src/dev/oled_ssd130x.h ****         struct
  77:lib/libDaisy/src/dev/oled_ssd130x.h ****         {
  78:lib/libDaisy/src/dev/oled_ssd130x.h ****             dsy_gpio_pin dc;    /**< & */
  79:lib/libDaisy/src/dev/oled_ssd130x.h ****             dsy_gpio_pin reset; /**< & */
  80:lib/libDaisy/src/dev/oled_ssd130x.h ****         } pin_config;
  81:lib/libDaisy/src/dev/oled_ssd130x.h ****         void Defaults()
  82:lib/libDaisy/src/dev/oled_ssd130x.h ****         {
  83:lib/libDaisy/src/dev/oled_ssd130x.h ****             // SPI peripheral config
  84:lib/libDaisy/src/dev/oled_ssd130x.h ****             spi_config.periph = SpiHandle::Config::Peripheral::SPI_1;
  85:lib/libDaisy/src/dev/oled_ssd130x.h ****             spi_config.mode   = SpiHandle::Config::Mode::MASTER;
  86:lib/libDaisy/src/dev/oled_ssd130x.h ****             spi_config.direction
ARM GAS  E:\Users\Preston\Documents\AppData\Local\Temp\ccW6aDBy.s 			page 11


  87:lib/libDaisy/src/dev/oled_ssd130x.h ****                 = SpiHandle::Config::Direction::TWO_LINES_TX_ONLY;
  88:lib/libDaisy/src/dev/oled_ssd130x.h ****             spi_config.datasize       = 8;
  89:lib/libDaisy/src/dev/oled_ssd130x.h ****             spi_config.clock_polarity = SpiHandle::Config::ClockPolarity::LOW;
  90:lib/libDaisy/src/dev/oled_ssd130x.h ****             spi_config.clock_phase    = SpiHandle::Config::ClockPhase::ONE_EDGE;
  91:lib/libDaisy/src/dev/oled_ssd130x.h ****             spi_config.nss            = SpiHandle::Config::NSS::HARD_OUTPUT;
  92:lib/libDaisy/src/dev/oled_ssd130x.h ****             spi_config.baud_prescaler = SpiHandle::Config::BaudPrescaler::PS_8;
  93:lib/libDaisy/src/dev/oled_ssd130x.h ****             // SPI pin config
  94:lib/libDaisy/src/dev/oled_ssd130x.h ****             spi_config.pin_config.sclk = {DSY_GPIOG, 11};
  95:lib/libDaisy/src/dev/oled_ssd130x.h ****             spi_config.pin_config.miso = {DSY_GPIOX, 0};
  96:lib/libDaisy/src/dev/oled_ssd130x.h ****             spi_config.pin_config.mosi = {DSY_GPIOB, 5};
  97:lib/libDaisy/src/dev/oled_ssd130x.h ****             spi_config.pin_config.nss  = {DSY_GPIOG, 10};
  98:lib/libDaisy/src/dev/oled_ssd130x.h ****             // SSD130x control pin config
  99:lib/libDaisy/src/dev/oled_ssd130x.h ****             pin_config.dc    = {DSY_GPIOB, 4};
 100:lib/libDaisy/src/dev/oled_ssd130x.h ****             pin_config.reset = {DSY_GPIOB, 15};
 101:lib/libDaisy/src/dev/oled_ssd130x.h ****         }
 102:lib/libDaisy/src/dev/oled_ssd130x.h ****     };
 103:lib/libDaisy/src/dev/oled_ssd130x.h ****     void Init(const Config& config)
 104:lib/libDaisy/src/dev/oled_ssd130x.h ****     {
 105:lib/libDaisy/src/dev/oled_ssd130x.h ****         // Initialize both GPIO
 106:lib/libDaisy/src/dev/oled_ssd130x.h ****         pin_dc_.mode = DSY_GPIO_MODE_OUTPUT_PP;
 107:lib/libDaisy/src/dev/oled_ssd130x.h ****         pin_dc_.pin  = config.pin_config.dc;
 108:lib/libDaisy/src/dev/oled_ssd130x.h ****         dsy_gpio_init(&pin_dc_);
 109:lib/libDaisy/src/dev/oled_ssd130x.h ****         pin_reset_.mode = DSY_GPIO_MODE_OUTPUT_PP;
 110:lib/libDaisy/src/dev/oled_ssd130x.h ****         pin_reset_.pin  = config.pin_config.reset;
 111:lib/libDaisy/src/dev/oled_ssd130x.h ****         dsy_gpio_init(&pin_reset_);
 112:lib/libDaisy/src/dev/oled_ssd130x.h **** 
 113:lib/libDaisy/src/dev/oled_ssd130x.h ****         // Initialize SPI
 114:lib/libDaisy/src/dev/oled_ssd130x.h ****         spi_.Init(config.spi_config);
 115:lib/libDaisy/src/dev/oled_ssd130x.h **** 
 116:lib/libDaisy/src/dev/oled_ssd130x.h ****         // Reset and Configure OLED.
 117:lib/libDaisy/src/dev/oled_ssd130x.h ****         dsy_gpio_write(&pin_reset_, 0);
 118:lib/libDaisy/src/dev/oled_ssd130x.h ****         System::Delay(10);
 119:lib/libDaisy/src/dev/oled_ssd130x.h ****         dsy_gpio_write(&pin_reset_, 1);
 120:lib/libDaisy/src/dev/oled_ssd130x.h ****         System::Delay(10);
 121:lib/libDaisy/src/dev/oled_ssd130x.h ****     };
 122:lib/libDaisy/src/dev/oled_ssd130x.h ****     void SendCommand(uint8_t cmd)
 123:lib/libDaisy/src/dev/oled_ssd130x.h ****     {
 124:lib/libDaisy/src/dev/oled_ssd130x.h ****         dsy_gpio_write(&pin_dc_, 0);
 125:lib/libDaisy/src/dev/oled_ssd130x.h ****         spi_.BlockingTransmit(&cmd, 1);
 126:lib/libDaisy/src/dev/oled_ssd130x.h ****     };
 127:lib/libDaisy/src/dev/oled_ssd130x.h **** 
 128:lib/libDaisy/src/dev/oled_ssd130x.h ****     void SendData(uint8_t* buff, size_t size)
 129:lib/libDaisy/src/dev/oled_ssd130x.h ****     {
 130:lib/libDaisy/src/dev/oled_ssd130x.h ****         dsy_gpio_write(&pin_dc_, 1);
 131:lib/libDaisy/src/dev/oled_ssd130x.h ****         spi_.BlockingTransmit(buff, size);
 132:lib/libDaisy/src/dev/oled_ssd130x.h ****     };
 133:lib/libDaisy/src/dev/oled_ssd130x.h **** 
 134:lib/libDaisy/src/dev/oled_ssd130x.h ****   private:
 135:lib/libDaisy/src/dev/oled_ssd130x.h ****     SpiHandle spi_;
 136:lib/libDaisy/src/dev/oled_ssd130x.h ****     dsy_gpio  pin_reset_;
 137:lib/libDaisy/src/dev/oled_ssd130x.h ****     dsy_gpio  pin_dc_;
 138:lib/libDaisy/src/dev/oled_ssd130x.h **** };
 139:lib/libDaisy/src/dev/oled_ssd130x.h **** 
 140:lib/libDaisy/src/dev/oled_ssd130x.h **** /**
 141:lib/libDaisy/src/dev/oled_ssd130x.h ****  * Soft SPI Transport for SSD1306 / SSD1309 OLED display devices
 142:lib/libDaisy/src/dev/oled_ssd130x.h ****  */
 143:lib/libDaisy/src/dev/oled_ssd130x.h **** class SSD130x4WireSoftSpiTransport
ARM GAS  E:\Users\Preston\Documents\AppData\Local\Temp\ccW6aDBy.s 			page 12


 144:lib/libDaisy/src/dev/oled_ssd130x.h **** {
 145:lib/libDaisy/src/dev/oled_ssd130x.h ****   public:
 146:lib/libDaisy/src/dev/oled_ssd130x.h ****     struct Config
 147:lib/libDaisy/src/dev/oled_ssd130x.h ****     {
 148:lib/libDaisy/src/dev/oled_ssd130x.h ****         Config()
 149:lib/libDaisy/src/dev/oled_ssd130x.h ****         {
 150:lib/libDaisy/src/dev/oled_ssd130x.h ****             // Initialize using defaults
 151:lib/libDaisy/src/dev/oled_ssd130x.h ****             Defaults();
 152:lib/libDaisy/src/dev/oled_ssd130x.h ****         }
 153:lib/libDaisy/src/dev/oled_ssd130x.h ****         struct
 154:lib/libDaisy/src/dev/oled_ssd130x.h ****         {
 155:lib/libDaisy/src/dev/oled_ssd130x.h ****             uint32_t     sclk_delay;
 156:lib/libDaisy/src/dev/oled_ssd130x.h ****             dsy_gpio_pin sclk;
 157:lib/libDaisy/src/dev/oled_ssd130x.h ****             dsy_gpio_pin mosi;
 158:lib/libDaisy/src/dev/oled_ssd130x.h ****             dsy_gpio_pin dc;
 159:lib/libDaisy/src/dev/oled_ssd130x.h ****             dsy_gpio_pin reset;
 160:lib/libDaisy/src/dev/oled_ssd130x.h ****         } pin_config;
 161:lib/libDaisy/src/dev/oled_ssd130x.h ****         void Defaults()
 162:lib/libDaisy/src/dev/oled_ssd130x.h ****         {
 163:lib/libDaisy/src/dev/oled_ssd130x.h ****             pin_config.sclk_delay = 0; // fast as possible?!
 164:lib/libDaisy/src/dev/oled_ssd130x.h ****             // SPI peripheral config
 165:lib/libDaisy/src/dev/oled_ssd130x.h ****             pin_config.sclk = {DSY_GPIOD, 3}; /**< D10 - SPI2 SCK  */
 166:lib/libDaisy/src/dev/oled_ssd130x.h ****             pin_config.mosi = {DSY_GPIOC, 3}; /**< D9  - SPI2 MOSI */
 167:lib/libDaisy/src/dev/oled_ssd130x.h ****             // SSD130x control pin config
 168:lib/libDaisy/src/dev/oled_ssd130x.h ****             pin_config.dc    = {DSY_GPIOC, 11}; //D2
 169:lib/libDaisy/src/dev/oled_ssd130x.h ****             pin_config.reset = {DSY_GPIOC, 10}; //D3
 170:lib/libDaisy/src/dev/oled_ssd130x.h ****         }
 171:lib/libDaisy/src/dev/oled_ssd130x.h ****     };
 172:lib/libDaisy/src/dev/oled_ssd130x.h ****     void Init(const Config& config)
 173:lib/libDaisy/src/dev/oled_ssd130x.h ****     {
 174:lib/libDaisy/src/dev/oled_ssd130x.h ****         // Initialize both GPIO
 175:lib/libDaisy/src/dev/oled_ssd130x.h ****         pin_sclk_.mode = DSY_GPIO_MODE_OUTPUT_PP;
 176:lib/libDaisy/src/dev/oled_ssd130x.h ****         pin_sclk_.pin  = config.pin_config.sclk;
 177:lib/libDaisy/src/dev/oled_ssd130x.h ****         dsy_gpio_init(&pin_sclk_);
 178:lib/libDaisy/src/dev/oled_ssd130x.h ****         dsy_gpio_write(&pin_sclk_, 1); //ClockPolarity::LOW
 179:lib/libDaisy/src/dev/oled_ssd130x.h ****         clk_delay      = config.pin_config.sclk_delay;
 180:lib/libDaisy/src/dev/oled_ssd130x.h ****         pin_mosi_.mode = DSY_GPIO_MODE_OUTPUT_PP;
 181:lib/libDaisy/src/dev/oled_ssd130x.h ****         pin_mosi_.pin  = config.pin_config.mosi;
 182:lib/libDaisy/src/dev/oled_ssd130x.h ****         dsy_gpio_init(&pin_mosi_);
 183:lib/libDaisy/src/dev/oled_ssd130x.h ****         dsy_gpio_write(&pin_mosi_, 0);
 184:lib/libDaisy/src/dev/oled_ssd130x.h **** 
 185:lib/libDaisy/src/dev/oled_ssd130x.h ****         pin_dc_.mode = DSY_GPIO_MODE_OUTPUT_PP;
 186:lib/libDaisy/src/dev/oled_ssd130x.h ****         pin_dc_.pin  = config.pin_config.dc;
 187:lib/libDaisy/src/dev/oled_ssd130x.h ****         dsy_gpio_init(&pin_dc_);
 188:lib/libDaisy/src/dev/oled_ssd130x.h ****         pin_reset_.mode = DSY_GPIO_MODE_OUTPUT_PP;
 189:lib/libDaisy/src/dev/oled_ssd130x.h ****         pin_reset_.pin  = config.pin_config.reset;
 190:lib/libDaisy/src/dev/oled_ssd130x.h ****         dsy_gpio_init(&pin_reset_);
 191:lib/libDaisy/src/dev/oled_ssd130x.h **** 
 192:lib/libDaisy/src/dev/oled_ssd130x.h ****         // Reset and Configure OLED.
 193:lib/libDaisy/src/dev/oled_ssd130x.h ****         dsy_gpio_write(&pin_reset_, 0);
 194:lib/libDaisy/src/dev/oled_ssd130x.h ****         System::Delay(10);
 195:lib/libDaisy/src/dev/oled_ssd130x.h ****         dsy_gpio_write(&pin_reset_, 1);
 196:lib/libDaisy/src/dev/oled_ssd130x.h ****         System::Delay(10);
 197:lib/libDaisy/src/dev/oled_ssd130x.h ****     };
 198:lib/libDaisy/src/dev/oled_ssd130x.h ****     void SendCommand(uint8_t cmd)
 199:lib/libDaisy/src/dev/oled_ssd130x.h ****     {
 200:lib/libDaisy/src/dev/oled_ssd130x.h ****         dsy_gpio_write(&pin_dc_, 0);
ARM GAS  E:\Users\Preston\Documents\AppData\Local\Temp\ccW6aDBy.s 			page 13


 201:lib/libDaisy/src/dev/oled_ssd130x.h ****         SoftSpiTransmit(cmd);
 202:lib/libDaisy/src/dev/oled_ssd130x.h ****     };
 203:lib/libDaisy/src/dev/oled_ssd130x.h **** 
 204:lib/libDaisy/src/dev/oled_ssd130x.h ****     void SendData(uint8_t* buff, size_t size)
 205:lib/libDaisy/src/dev/oled_ssd130x.h ****     {
 206:lib/libDaisy/src/dev/oled_ssd130x.h ****         dsy_gpio_write(&pin_dc_, 1);
 207:lib/libDaisy/src/dev/oled_ssd130x.h ****         for(size_t i = 0; i < size; i++)
 208:lib/libDaisy/src/dev/oled_ssd130x.h ****             SoftSpiTransmit(buff[i]);
 209:lib/libDaisy/src/dev/oled_ssd130x.h ****     };
 210:lib/libDaisy/src/dev/oled_ssd130x.h **** 
 211:lib/libDaisy/src/dev/oled_ssd130x.h ****   private:
 212:lib/libDaisy/src/dev/oled_ssd130x.h ****     void SoftSpiTransmit(uint8_t val)
 213:lib/libDaisy/src/dev/oled_ssd130x.h ****     {
 214:lib/libDaisy/src/dev/oled_ssd130x.h ****         // bit flip
 215:lib/libDaisy/src/dev/oled_ssd130x.h ****         val = ((val & 0x01) << 7) | ((val & 0x02) << 5) | ((val & 0x04) << 3)
 216:lib/libDaisy/src/dev/oled_ssd130x.h ****               | ((val & 0x08) << 1) | ((val & 0x10) >> 1) | ((val & 0x20) >> 3)
 217:lib/libDaisy/src/dev/oled_ssd130x.h ****               | ((val & 0x40) >> 5) | ((val & 0x80) >> 7);
 218:lib/libDaisy/src/dev/oled_ssd130x.h **** 
 219:lib/libDaisy/src/dev/oled_ssd130x.h ****         for(uint8_t bit = 0u; bit < 8u; bit++)
 220:lib/libDaisy/src/dev/oled_ssd130x.h ****         {
 221:lib/libDaisy/src/dev/oled_ssd130x.h ****             dsy_gpio_write(&pin_mosi_, ((val & (1 << bit)) ? 1 : 0));
 222:lib/libDaisy/src/dev/oled_ssd130x.h **** 
 223:lib/libDaisy/src/dev/oled_ssd130x.h ****             System::DelayTicks(clk_delay);
 224:lib/libDaisy/src/dev/oled_ssd130x.h **** 
 225:lib/libDaisy/src/dev/oled_ssd130x.h ****             dsy_gpio_toggle(&pin_sclk_);
 226:lib/libDaisy/src/dev/oled_ssd130x.h **** 
 227:lib/libDaisy/src/dev/oled_ssd130x.h ****             System::DelayTicks(clk_delay);
 228:lib/libDaisy/src/dev/oled_ssd130x.h **** 
 229:lib/libDaisy/src/dev/oled_ssd130x.h ****             dsy_gpio_toggle(&pin_sclk_);
 230:lib/libDaisy/src/dev/oled_ssd130x.h ****         }
 231:lib/libDaisy/src/dev/oled_ssd130x.h ****     }
 232:lib/libDaisy/src/dev/oled_ssd130x.h **** 
 233:lib/libDaisy/src/dev/oled_ssd130x.h ****     uint32_t clk_delay;
 234:lib/libDaisy/src/dev/oled_ssd130x.h ****     dsy_gpio pin_sclk_;
 235:lib/libDaisy/src/dev/oled_ssd130x.h ****     dsy_gpio pin_mosi_;
 236:lib/libDaisy/src/dev/oled_ssd130x.h ****     dsy_gpio pin_reset_;
 237:lib/libDaisy/src/dev/oled_ssd130x.h ****     dsy_gpio pin_dc_;
 238:lib/libDaisy/src/dev/oled_ssd130x.h **** };
 239:lib/libDaisy/src/dev/oled_ssd130x.h **** 
 240:lib/libDaisy/src/dev/oled_ssd130x.h **** 
 241:lib/libDaisy/src/dev/oled_ssd130x.h **** /**
 242:lib/libDaisy/src/dev/oled_ssd130x.h ****  * A driver implementation for the SSD1306/SSD1309
 243:lib/libDaisy/src/dev/oled_ssd130x.h ****  */
 244:lib/libDaisy/src/dev/oled_ssd130x.h **** template <size_t width, size_t height, typename Transport>
 245:lib/libDaisy/src/dev/oled_ssd130x.h **** class SSD130xDriver
 246:lib/libDaisy/src/dev/oled_ssd130x.h **** {
 247:lib/libDaisy/src/dev/oled_ssd130x.h ****   public:
 248:lib/libDaisy/src/dev/oled_ssd130x.h ****     struct Config
 249:lib/libDaisy/src/dev/oled_ssd130x.h ****     {
 250:lib/libDaisy/src/dev/oled_ssd130x.h ****         typename Transport::Config transport_config;
 251:lib/libDaisy/src/dev/oled_ssd130x.h ****     };
 252:lib/libDaisy/src/dev/oled_ssd130x.h **** 
 253:lib/libDaisy/src/dev/oled_ssd130x.h ****     void Init(Config config)
 254:lib/libDaisy/src/dev/oled_ssd130x.h ****     {
 255:lib/libDaisy/src/dev/oled_ssd130x.h ****         transport_.Init(config.transport_config);
 256:lib/libDaisy/src/dev/oled_ssd130x.h **** 
 257:lib/libDaisy/src/dev/oled_ssd130x.h ****         // Init routine...
ARM GAS  E:\Users\Preston\Documents\AppData\Local\Temp\ccW6aDBy.s 			page 14


 258:lib/libDaisy/src/dev/oled_ssd130x.h **** 
 259:lib/libDaisy/src/dev/oled_ssd130x.h ****         // Display Off
 260:lib/libDaisy/src/dev/oled_ssd130x.h ****         transport_.SendCommand(0xaE);
 261:lib/libDaisy/src/dev/oled_ssd130x.h ****         // Dimension dependent commands...
 262:lib/libDaisy/src/dev/oled_ssd130x.h ****         switch(height)
 263:lib/libDaisy/src/dev/oled_ssd130x.h ****         {
 264:lib/libDaisy/src/dev/oled_ssd130x.h ****             case 16:
 265:lib/libDaisy/src/dev/oled_ssd130x.h ****                 // Display Clock Divide Ratio
 266:lib/libDaisy/src/dev/oled_ssd130x.h ****                 transport_.SendCommand(0xD5);
 267:lib/libDaisy/src/dev/oled_ssd130x.h ****                 transport_.SendCommand(0x60);
 268:lib/libDaisy/src/dev/oled_ssd130x.h ****                 // Multiplex Ratio
 269:lib/libDaisy/src/dev/oled_ssd130x.h ****                 transport_.SendCommand(0xA8);
 270:lib/libDaisy/src/dev/oled_ssd130x.h ****                 transport_.SendCommand(0x0F);
 271:lib/libDaisy/src/dev/oled_ssd130x.h ****                 // COM Pins
 272:lib/libDaisy/src/dev/oled_ssd130x.h ****                 transport_.SendCommand(0xDA);
 273:lib/libDaisy/src/dev/oled_ssd130x.h ****                 transport_.SendCommand(0x02);
 274:lib/libDaisy/src/dev/oled_ssd130x.h ****                 break;
 275:lib/libDaisy/src/dev/oled_ssd130x.h ****             case 32:
 276:lib/libDaisy/src/dev/oled_ssd130x.h ****                 // Display Clock Divide Ratio
 277:lib/libDaisy/src/dev/oled_ssd130x.h ****                 transport_.SendCommand(0xD5);
 278:lib/libDaisy/src/dev/oled_ssd130x.h ****                 transport_.SendCommand(0x80);
 279:lib/libDaisy/src/dev/oled_ssd130x.h ****                 // Multiplex Ratio
 280:lib/libDaisy/src/dev/oled_ssd130x.h ****                 transport_.SendCommand(0xA8);
 281:lib/libDaisy/src/dev/oled_ssd130x.h ****                 transport_.SendCommand(0x1F);
 282:lib/libDaisy/src/dev/oled_ssd130x.h ****                 // COM Pins
 283:lib/libDaisy/src/dev/oled_ssd130x.h ****                 transport_.SendCommand(0xDA);
 284:lib/libDaisy/src/dev/oled_ssd130x.h ****                 if(width == 64)
 285:lib/libDaisy/src/dev/oled_ssd130x.h ****                 {
 286:lib/libDaisy/src/dev/oled_ssd130x.h ****                     transport_.SendCommand(0x12);
 287:lib/libDaisy/src/dev/oled_ssd130x.h ****                 }
 288:lib/libDaisy/src/dev/oled_ssd130x.h ****                 else
 289:lib/libDaisy/src/dev/oled_ssd130x.h ****                 {
 290:lib/libDaisy/src/dev/oled_ssd130x.h ****                     transport_.SendCommand(0x02);
 291:lib/libDaisy/src/dev/oled_ssd130x.h ****                 }
 292:lib/libDaisy/src/dev/oled_ssd130x.h **** 
 293:lib/libDaisy/src/dev/oled_ssd130x.h ****                 break;
 294:lib/libDaisy/src/dev/oled_ssd130x.h ****             case 48:
 295:lib/libDaisy/src/dev/oled_ssd130x.h ****                 // Display Clock Divide Ratio
 296:lib/libDaisy/src/dev/oled_ssd130x.h ****                 transport_.SendCommand(0xD5);
 297:lib/libDaisy/src/dev/oled_ssd130x.h ****                 transport_.SendCommand(0x80);
 298:lib/libDaisy/src/dev/oled_ssd130x.h ****                 // Multiplex Ratio
 299:lib/libDaisy/src/dev/oled_ssd130x.h ****                 transport_.SendCommand(0xA8);
 300:lib/libDaisy/src/dev/oled_ssd130x.h ****                 transport_.SendCommand(0x2F);
 301:lib/libDaisy/src/dev/oled_ssd130x.h ****                 // COM Pins
 302:lib/libDaisy/src/dev/oled_ssd130x.h ****                 transport_.SendCommand(0xDA);
 303:lib/libDaisy/src/dev/oled_ssd130x.h ****                 transport_.SendCommand(0x12);
 304:lib/libDaisy/src/dev/oled_ssd130x.h ****                 break;
 305:lib/libDaisy/src/dev/oled_ssd130x.h ****             default: // 128
 306:lib/libDaisy/src/dev/oled_ssd130x.h ****                 // Display Clock Divide Ratio
 307:lib/libDaisy/src/dev/oled_ssd130x.h ****                 transport_.SendCommand(0xD5);
 308:lib/libDaisy/src/dev/oled_ssd130x.h ****                 transport_.SendCommand(0x80);
 309:lib/libDaisy/src/dev/oled_ssd130x.h ****                 // Multiplex Ratio
 310:lib/libDaisy/src/dev/oled_ssd130x.h ****                 transport_.SendCommand(0xA8);
 311:lib/libDaisy/src/dev/oled_ssd130x.h ****                 transport_.SendCommand(0x3F);
 312:lib/libDaisy/src/dev/oled_ssd130x.h ****                 // COM Pins
 313:lib/libDaisy/src/dev/oled_ssd130x.h ****                 transport_.SendCommand(0xDA);
 314:lib/libDaisy/src/dev/oled_ssd130x.h ****                 transport_.SendCommand(0x12);
ARM GAS  E:\Users\Preston\Documents\AppData\Local\Temp\ccW6aDBy.s 			page 15


 315:lib/libDaisy/src/dev/oled_ssd130x.h ****                 break;
 316:lib/libDaisy/src/dev/oled_ssd130x.h ****         }
 317:lib/libDaisy/src/dev/oled_ssd130x.h **** 
 318:lib/libDaisy/src/dev/oled_ssd130x.h ****         // Display Offset
 319:lib/libDaisy/src/dev/oled_ssd130x.h ****         transport_.SendCommand(0xD3);
 320:lib/libDaisy/src/dev/oled_ssd130x.h ****         transport_.SendCommand(0x00);
 321:lib/libDaisy/src/dev/oled_ssd130x.h ****         // Start Line Address
 322:lib/libDaisy/src/dev/oled_ssd130x.h ****         transport_.SendCommand(0x40);
 323:lib/libDaisy/src/dev/oled_ssd130x.h ****         // Normal Display
 324:lib/libDaisy/src/dev/oled_ssd130x.h ****         transport_.SendCommand(0xA6);
 325:lib/libDaisy/src/dev/oled_ssd130x.h ****         // All On Resume
 326:lib/libDaisy/src/dev/oled_ssd130x.h ****         transport_.SendCommand(0xA4);
 327:lib/libDaisy/src/dev/oled_ssd130x.h ****         // Charge Pump
 328:lib/libDaisy/src/dev/oled_ssd130x.h ****         transport_.SendCommand(0x8D);
 329:lib/libDaisy/src/dev/oled_ssd130x.h ****         transport_.SendCommand(0x14);
 330:lib/libDaisy/src/dev/oled_ssd130x.h ****         // Set Segment Remap
 331:lib/libDaisy/src/dev/oled_ssd130x.h ****         transport_.SendCommand(0xA1);
 332:lib/libDaisy/src/dev/oled_ssd130x.h ****         // COM Output Scan Direction
 333:lib/libDaisy/src/dev/oled_ssd130x.h ****         transport_.SendCommand(0xC8);
 334:lib/libDaisy/src/dev/oled_ssd130x.h ****         // Contrast Control
 335:lib/libDaisy/src/dev/oled_ssd130x.h ****         transport_.SendCommand(0x81);
 336:lib/libDaisy/src/dev/oled_ssd130x.h ****         transport_.SendCommand(0x8F);
 337:lib/libDaisy/src/dev/oled_ssd130x.h ****         // Pre Charge
 338:lib/libDaisy/src/dev/oled_ssd130x.h ****         transport_.SendCommand(0xD9);
 339:lib/libDaisy/src/dev/oled_ssd130x.h ****         transport_.SendCommand(0x25);
 340:lib/libDaisy/src/dev/oled_ssd130x.h ****         // VCOM Detect
 341:lib/libDaisy/src/dev/oled_ssd130x.h ****         transport_.SendCommand(0xDB);
 342:lib/libDaisy/src/dev/oled_ssd130x.h ****         transport_.SendCommand(0x34);
 343:lib/libDaisy/src/dev/oled_ssd130x.h **** 
 344:lib/libDaisy/src/dev/oled_ssd130x.h **** 
 345:lib/libDaisy/src/dev/oled_ssd130x.h ****         // Display On
 346:lib/libDaisy/src/dev/oled_ssd130x.h ****         transport_.SendCommand(0xAF); //--turn on oled panel
 347:lib/libDaisy/src/dev/oled_ssd130x.h ****     };
 348:lib/libDaisy/src/dev/oled_ssd130x.h **** 
 349:lib/libDaisy/src/dev/oled_ssd130x.h ****     size_t Width() const { return width; };
 350:lib/libDaisy/src/dev/oled_ssd130x.h ****     size_t Height() const { return height; };
 351:lib/libDaisy/src/dev/oled_ssd130x.h **** 
 352:lib/libDaisy/src/dev/oled_ssd130x.h ****     void DrawPixel(uint_fast8_t x, uint_fast8_t y, bool on)
 353:lib/libDaisy/src/dev/oled_ssd130x.h ****     {
 354:lib/libDaisy/src/dev/oled_ssd130x.h ****         if(x >= width || y >= height)
 355:lib/libDaisy/src/dev/oled_ssd130x.h ****             return;
 356:lib/libDaisy/src/dev/oled_ssd130x.h ****         if(on)
 357:lib/libDaisy/src/dev/oled_ssd130x.h ****             buffer_[x + (y / 8) * width] |= (1 << (y % 8));
 358:lib/libDaisy/src/dev/oled_ssd130x.h ****         else
 359:lib/libDaisy/src/dev/oled_ssd130x.h ****             buffer_[x + (y / 8) * width] &= ~(1 << (y % 8));
 360:lib/libDaisy/src/dev/oled_ssd130x.h ****     }
 361:lib/libDaisy/src/dev/oled_ssd130x.h **** 
 362:lib/libDaisy/src/dev/oled_ssd130x.h ****     void Fill(bool on)
  87              		.loc 7 362 10 view .LVU11
  88              	.LBB501:
 363:lib/libDaisy/src/dev/oled_ssd130x.h ****     {
 364:lib/libDaisy/src/dev/oled_ssd130x.h ****         for(size_t i = 0; i < sizeof(buffer_); i++)
  89              		.loc 7 364 29 view .LVU12
 365:lib/libDaisy/src/dev/oled_ssd130x.h ****         {
 366:lib/libDaisy/src/dev/oled_ssd130x.h ****             buffer_[i] = on ? 0xff : 0x00;
  90              		.loc 7 366 24 is_stmt 0 view .LVU13
  91 0000 4942     		rsbs	r1, r1, #0
ARM GAS  E:\Users\Preston\Documents\AppData\Local\Temp\ccW6aDBy.s 			page 16


  92              	.LVL2:
  93              		.loc 7 366 24 view .LVU14
  94 0002 4FF48062 		mov	r2, #1024
  95 0006 1030     		adds	r0, r0, #16
  96              	.LVL3:
  97              		.loc 7 366 24 view .LVU15
  98 0008 C9B2     		uxtb	r1, r1
  99 000a FFF7FEBF 		b	memset
 100              	.LVL4:
 101              		.loc 7 366 24 view .LVU16
 102              	.LBE501:
 103              	.LBE500:
 104              		.cfi_endproc
 105              	.LFE2633:
 107 000e 00BF     		.section	.text._ZN5daisy4FIFOINS_9MidiEventELj128EED2Ev,"axG",%progbits,_ZN5daisy4FIFOINS_9MidiEve
 108              		.align	1
 109              		.p2align 2,,3
 110              		.weak	_ZN5daisy4FIFOINS_9MidiEventELj128EED2Ev
 111              		.syntax unified
 112              		.thumb
 113              		.thumb_func
 114              		.fpu fpv5-d16
 116              	_ZN5daisy4FIFOINS_9MidiEventELj128EED2Ev:
 117              	.LVL5:
 118              	.LFB2679:
 119              		.file 8 "lib/libDaisy/src/util/FIFO.h"
   1:lib/libDaisy/src/util/FIFO.h **** #pragma once
   2:lib/libDaisy/src/util/FIFO.h **** 
   3:lib/libDaisy/src/util/FIFO.h **** #include <stdint.h>
   4:lib/libDaisy/src/util/FIFO.h **** #include <stddef.h>
   5:lib/libDaisy/src/util/FIFO.h **** #include <initializer_list>
   6:lib/libDaisy/src/util/FIFO.h **** 
   7:lib/libDaisy/src/util/FIFO.h **** namespace daisy
   8:lib/libDaisy/src/util/FIFO.h **** {
   9:lib/libDaisy/src/util/FIFO.h **** /** Capacity-independent base class for FIFO. Use FIFO instead. */
  10:lib/libDaisy/src/util/FIFO.h **** template <typename T>
  11:lib/libDaisy/src/util/FIFO.h **** class FIFOBase
  12:lib/libDaisy/src/util/FIFO.h **** {
  13:lib/libDaisy/src/util/FIFO.h ****   protected:
  14:lib/libDaisy/src/util/FIFO.h ****     FIFOBase(T* buffer, size_t bufferSize)
  15:lib/libDaisy/src/util/FIFO.h ****     : buffer_(buffer), bufferSize_(bufferSize), bufferIn_(0), bufferOut_(0)
  16:lib/libDaisy/src/util/FIFO.h ****     {
  17:lib/libDaisy/src/util/FIFO.h ****     }
  18:lib/libDaisy/src/util/FIFO.h **** 
  19:lib/libDaisy/src/util/FIFO.h ****     FIFOBase(T* buffer, size_t bufferSize, std::initializer_list<T> valuesToAdd)
  20:lib/libDaisy/src/util/FIFO.h ****     : buffer_(buffer), bufferSize_(bufferSize), bufferIn_(0), bufferOut_(0)
  21:lib/libDaisy/src/util/FIFO.h ****     {
  22:lib/libDaisy/src/util/FIFO.h ****         PushBack(valuesToAdd);
  23:lib/libDaisy/src/util/FIFO.h ****     }
  24:lib/libDaisy/src/util/FIFO.h **** 
  25:lib/libDaisy/src/util/FIFO.h ****   public:
  26:lib/libDaisy/src/util/FIFO.h ****     /** Copies all elements from another FIFO */
  27:lib/libDaisy/src/util/FIFO.h ****     FIFOBase<T>& operator=(const FIFOBase<T>& other)
  28:lib/libDaisy/src/util/FIFO.h ****     {
  29:lib/libDaisy/src/util/FIFO.h ****         bufferIn_ = bufferOut_ = 0;
  30:lib/libDaisy/src/util/FIFO.h ****         if(!other.IsEmpty())
  31:lib/libDaisy/src/util/FIFO.h ****         {
ARM GAS  E:\Users\Preston\Documents\AppData\Local\Temp\ccW6aDBy.s 			page 17


  32:lib/libDaisy/src/util/FIFO.h ****             int readPtr = other.bufferOut_;
  33:lib/libDaisy/src/util/FIFO.h ****             while((readPtr != other.bufferIn_) && (bufferIn_ < bufferSize_))
  34:lib/libDaisy/src/util/FIFO.h ****             {
  35:lib/libDaisy/src/util/FIFO.h ****                 buffer_[bufferIn_++] = other.buffer_[readPtr++];
  36:lib/libDaisy/src/util/FIFO.h ****                 if(readPtr >= other.bufferSize_)
  37:lib/libDaisy/src/util/FIFO.h ****                     readPtr -= other.bufferSize_;
  38:lib/libDaisy/src/util/FIFO.h ****             }
  39:lib/libDaisy/src/util/FIFO.h ****         }
  40:lib/libDaisy/src/util/FIFO.h ****         return *this;
  41:lib/libDaisy/src/util/FIFO.h ****     }
  42:lib/libDaisy/src/util/FIFO.h ****     ~FIFOBase() {}
  43:lib/libDaisy/src/util/FIFO.h **** 
  44:lib/libDaisy/src/util/FIFO.h ****     /** Removes all elements from the FIFO */
  45:lib/libDaisy/src/util/FIFO.h ****     void Clear() { bufferIn_ = bufferOut_ = 0; }
  46:lib/libDaisy/src/util/FIFO.h **** 
  47:lib/libDaisy/src/util/FIFO.h ****     /** Adds an element to the back of the buffer, returning true on
  48:lib/libDaisy/src/util/FIFO.h ****         success */
  49:lib/libDaisy/src/util/FIFO.h ****     bool PushBack(const T& elementToAdd)
  50:lib/libDaisy/src/util/FIFO.h ****     {
  51:lib/libDaisy/src/util/FIFO.h ****         if(!IsFull())
  52:lib/libDaisy/src/util/FIFO.h ****         {
  53:lib/libDaisy/src/util/FIFO.h ****             buffer_[bufferIn_++] = elementToAdd;
  54:lib/libDaisy/src/util/FIFO.h ****             if(bufferIn_ >= bufferSize_)
  55:lib/libDaisy/src/util/FIFO.h ****                 bufferIn_ -= bufferSize_;
  56:lib/libDaisy/src/util/FIFO.h ****             return true;
  57:lib/libDaisy/src/util/FIFO.h ****         }
  58:lib/libDaisy/src/util/FIFO.h ****         return false;
  59:lib/libDaisy/src/util/FIFO.h ****     }
  60:lib/libDaisy/src/util/FIFO.h **** 
  61:lib/libDaisy/src/util/FIFO.h ****     /** Adds multiple elements and returns the number of elements that were added */
  62:lib/libDaisy/src/util/FIFO.h ****     int PushBack(std::initializer_list<T> valuesToAdd)
  63:lib/libDaisy/src/util/FIFO.h ****     {
  64:lib/libDaisy/src/util/FIFO.h ****         int numAdded = 0;
  65:lib/libDaisy/src/util/FIFO.h ****         for(const auto& v : valuesToAdd)
  66:lib/libDaisy/src/util/FIFO.h ****         {
  67:lib/libDaisy/src/util/FIFO.h ****             if(IsFull())
  68:lib/libDaisy/src/util/FIFO.h ****                 return numAdded;
  69:lib/libDaisy/src/util/FIFO.h **** 
  70:lib/libDaisy/src/util/FIFO.h ****             PushBack(v);
  71:lib/libDaisy/src/util/FIFO.h ****             numAdded++;
  72:lib/libDaisy/src/util/FIFO.h ****         }
  73:lib/libDaisy/src/util/FIFO.h ****         return numAdded;
  74:lib/libDaisy/src/util/FIFO.h ****     }
  75:lib/libDaisy/src/util/FIFO.h **** 
  76:lib/libDaisy/src/util/FIFO.h ****     /** returns a reference to the last element */
  77:lib/libDaisy/src/util/FIFO.h ****     T& Back()
  78:lib/libDaisy/src/util/FIFO.h ****     {
  79:lib/libDaisy/src/util/FIFO.h ****         if(IsEmpty())
  80:lib/libDaisy/src/util/FIFO.h ****             // invalid, but better not pass a temporary T() object as a reference...
  81:lib/libDaisy/src/util/FIFO.h ****             return buffer_[0];
  82:lib/libDaisy/src/util/FIFO.h ****         int idx = bufferIn_ - 1;
  83:lib/libDaisy/src/util/FIFO.h ****         if(idx < 0)
  84:lib/libDaisy/src/util/FIFO.h ****             idx += bufferSize_;
  85:lib/libDaisy/src/util/FIFO.h ****         return buffer_[idx];
  86:lib/libDaisy/src/util/FIFO.h ****     }
  87:lib/libDaisy/src/util/FIFO.h **** 
  88:lib/libDaisy/src/util/FIFO.h ****     /** returns a reference to the last element */
ARM GAS  E:\Users\Preston\Documents\AppData\Local\Temp\ccW6aDBy.s 			page 18


  89:lib/libDaisy/src/util/FIFO.h ****     const T& Back() const
  90:lib/libDaisy/src/util/FIFO.h ****     {
  91:lib/libDaisy/src/util/FIFO.h ****         if(IsEmpty())
  92:lib/libDaisy/src/util/FIFO.h ****             // invalid, but better not pass a temporary T() object as a reference...
  93:lib/libDaisy/src/util/FIFO.h ****             return buffer_[0];
  94:lib/libDaisy/src/util/FIFO.h ****         int idx = bufferIn_ - 1;
  95:lib/libDaisy/src/util/FIFO.h ****         if(idx < 0)
  96:lib/libDaisy/src/util/FIFO.h ****             idx += bufferSize_;
  97:lib/libDaisy/src/util/FIFO.h ****         return buffer_[idx];
  98:lib/libDaisy/src/util/FIFO.h ****     }
  99:lib/libDaisy/src/util/FIFO.h **** 
 100:lib/libDaisy/src/util/FIFO.h ****     /** removes and returns an element from the front of the buffer */
 101:lib/libDaisy/src/util/FIFO.h ****     T PopFront()
 102:lib/libDaisy/src/util/FIFO.h ****     {
 103:lib/libDaisy/src/util/FIFO.h ****         if(IsEmpty())
 104:lib/libDaisy/src/util/FIFO.h ****             return T();
 105:lib/libDaisy/src/util/FIFO.h ****         else
 106:lib/libDaisy/src/util/FIFO.h ****         {
 107:lib/libDaisy/src/util/FIFO.h ****             const auto result = buffer_[bufferOut_];
 108:lib/libDaisy/src/util/FIFO.h ****             bufferOut_++;
 109:lib/libDaisy/src/util/FIFO.h ****             if(bufferOut_ >= bufferSize_)
 110:lib/libDaisy/src/util/FIFO.h ****                 bufferOut_ -= bufferSize_;
 111:lib/libDaisy/src/util/FIFO.h ****             return result;
 112:lib/libDaisy/src/util/FIFO.h ****         }
 113:lib/libDaisy/src/util/FIFO.h ****     }
 114:lib/libDaisy/src/util/FIFO.h **** 
 115:lib/libDaisy/src/util/FIFO.h ****     /** returns a copy of the first element */
 116:lib/libDaisy/src/util/FIFO.h ****     T& Front()
 117:lib/libDaisy/src/util/FIFO.h ****     {
 118:lib/libDaisy/src/util/FIFO.h ****         if(IsEmpty())
 119:lib/libDaisy/src/util/FIFO.h ****             // invalid, but better not pass a temporary T() object as a reference...
 120:lib/libDaisy/src/util/FIFO.h ****             return buffer_[0];
 121:lib/libDaisy/src/util/FIFO.h ****         return buffer_[bufferOut_];
 122:lib/libDaisy/src/util/FIFO.h ****     }
 123:lib/libDaisy/src/util/FIFO.h **** 
 124:lib/libDaisy/src/util/FIFO.h ****     /** returns a reference to the first element */
 125:lib/libDaisy/src/util/FIFO.h ****     const T& Front() const
 126:lib/libDaisy/src/util/FIFO.h ****     {
 127:lib/libDaisy/src/util/FIFO.h ****         if(IsEmpty())
 128:lib/libDaisy/src/util/FIFO.h ****             // invalid, but better not pass a temporary T() object as a reference...
 129:lib/libDaisy/src/util/FIFO.h ****             return buffer_[0];
 130:lib/libDaisy/src/util/FIFO.h ****         return buffer_[bufferOut_];
 131:lib/libDaisy/src/util/FIFO.h ****     }
 132:lib/libDaisy/src/util/FIFO.h **** 
 133:lib/libDaisy/src/util/FIFO.h ****     /** Returns true if the buffer contains an element equal to the provided value */
 134:lib/libDaisy/src/util/FIFO.h ****     bool Contains(const T& element)
 135:lib/libDaisy/src/util/FIFO.h ****     {
 136:lib/libDaisy/src/util/FIFO.h ****         auto idx = bufferOut_;
 137:lib/libDaisy/src/util/FIFO.h ****         while(idx != bufferIn_)
 138:lib/libDaisy/src/util/FIFO.h ****         {
 139:lib/libDaisy/src/util/FIFO.h ****             if(buffer_[idx] == element)
 140:lib/libDaisy/src/util/FIFO.h ****                 return true;
 141:lib/libDaisy/src/util/FIFO.h ****             idx++;
 142:lib/libDaisy/src/util/FIFO.h ****             if(idx >= bufferSize_)
 143:lib/libDaisy/src/util/FIFO.h ****                 idx -= bufferSize_;
 144:lib/libDaisy/src/util/FIFO.h ****         }
 145:lib/libDaisy/src/util/FIFO.h ****         return false;
ARM GAS  E:\Users\Preston\Documents\AppData\Local\Temp\ccW6aDBy.s 			page 19


 146:lib/libDaisy/src/util/FIFO.h ****     }
 147:lib/libDaisy/src/util/FIFO.h **** 
 148:lib/libDaisy/src/util/FIFO.h ****     /** Returns the number of elements in the buffer that are equal to the provided value */
 149:lib/libDaisy/src/util/FIFO.h ****     size_t CountEqualTo(const T& element)
 150:lib/libDaisy/src/util/FIFO.h ****     {
 151:lib/libDaisy/src/util/FIFO.h ****         size_t result = 0;
 152:lib/libDaisy/src/util/FIFO.h ****         size_t idx    = bufferOut_;
 153:lib/libDaisy/src/util/FIFO.h ****         while(idx != bufferIn_)
 154:lib/libDaisy/src/util/FIFO.h ****         {
 155:lib/libDaisy/src/util/FIFO.h ****             if(buffer_[idx] == element)
 156:lib/libDaisy/src/util/FIFO.h ****                 result++;
 157:lib/libDaisy/src/util/FIFO.h ****             idx++;
 158:lib/libDaisy/src/util/FIFO.h ****             if(idx >= bufferSize_)
 159:lib/libDaisy/src/util/FIFO.h ****                 idx -= bufferSize_;
 160:lib/libDaisy/src/util/FIFO.h ****         }
 161:lib/libDaisy/src/util/FIFO.h ****         return result;
 162:lib/libDaisy/src/util/FIFO.h ****     }
 163:lib/libDaisy/src/util/FIFO.h **** 
 164:lib/libDaisy/src/util/FIFO.h ****     /** returns true, if the buffer is empty */
 165:lib/libDaisy/src/util/FIFO.h ****     bool IsEmpty() const { return bufferIn_ == bufferOut_; }
 166:lib/libDaisy/src/util/FIFO.h **** 
 167:lib/libDaisy/src/util/FIFO.h ****     /** returns true, if the buffer is Full */
 168:lib/libDaisy/src/util/FIFO.h ****     bool IsFull() const { return GetNumElements() == bufferSize_ - 1; }
 169:lib/libDaisy/src/util/FIFO.h **** 
 170:lib/libDaisy/src/util/FIFO.h ****     /** returns the number of elements in the buffer */
 171:lib/libDaisy/src/util/FIFO.h ****     size_t GetNumElements() const
 172:lib/libDaisy/src/util/FIFO.h ****     {
 173:lib/libDaisy/src/util/FIFO.h ****         int32_t numElements = bufferIn_ - bufferOut_;
 174:lib/libDaisy/src/util/FIFO.h ****         if(numElements < 0)
 175:lib/libDaisy/src/util/FIFO.h ****             numElements += bufferSize_;
 176:lib/libDaisy/src/util/FIFO.h ****         return size_t(numElements);
 177:lib/libDaisy/src/util/FIFO.h ****     }
 178:lib/libDaisy/src/util/FIFO.h **** 
 179:lib/libDaisy/src/util/FIFO.h ****     /** inserts an element "idx" positions behind the first element and returns true if successful 
 180:lib/libDaisy/src/util/FIFO.h ****     bool Insert(size_t idx, const T& element)
 181:lib/libDaisy/src/util/FIFO.h ****     {
 182:lib/libDaisy/src/util/FIFO.h ****         if(idx > GetNumElements())
 183:lib/libDaisy/src/util/FIFO.h ****             return false;
 184:lib/libDaisy/src/util/FIFO.h ****         if(IsFull())
 185:lib/libDaisy/src/util/FIFO.h ****             return false;
 186:lib/libDaisy/src/util/FIFO.h ****         if(idx == GetNumElements())
 187:lib/libDaisy/src/util/FIFO.h ****         {
 188:lib/libDaisy/src/util/FIFO.h ****             PushBack(element);
 189:lib/libDaisy/src/util/FIFO.h ****             return true;
 190:lib/libDaisy/src/util/FIFO.h ****         }
 191:lib/libDaisy/src/util/FIFO.h ****         // copy last element
 192:lib/libDaisy/src/util/FIFO.h ****         PushBack(Back());
 193:lib/libDaisy/src/util/FIFO.h ****         // move remaining elements: n => n+1
 194:lib/libDaisy/src/util/FIFO.h ****         for(int i = GetNumElements() - 2; i > int(idx); i--)
 195:lib/libDaisy/src/util/FIFO.h ****             (*this)[i] = (*this)[i - 1];
 196:lib/libDaisy/src/util/FIFO.h ****         // insert element
 197:lib/libDaisy/src/util/FIFO.h ****         (*this)[idx] = element;
 198:lib/libDaisy/src/util/FIFO.h ****         return true;
 199:lib/libDaisy/src/util/FIFO.h ****     }
 200:lib/libDaisy/src/util/FIFO.h **** 
 201:lib/libDaisy/src/util/FIFO.h ****     /** removes the element "idx" positions behind the first element 
 202:lib/libDaisy/src/util/FIFO.h ****      *  and returns true if successful */
ARM GAS  E:\Users\Preston\Documents\AppData\Local\Temp\ccW6aDBy.s 			page 20


 203:lib/libDaisy/src/util/FIFO.h ****     bool Remove(size_t idx)
 204:lib/libDaisy/src/util/FIFO.h ****     {
 205:lib/libDaisy/src/util/FIFO.h ****         if(idx >= GetNumElements())
 206:lib/libDaisy/src/util/FIFO.h ****             return false;
 207:lib/libDaisy/src/util/FIFO.h **** 
 208:lib/libDaisy/src/util/FIFO.h ****         size_t index = bufferOut_ + idx;
 209:lib/libDaisy/src/util/FIFO.h ****         if(index >= bufferSize_)
 210:lib/libDaisy/src/util/FIFO.h ****             index -= bufferSize_;
 211:lib/libDaisy/src/util/FIFO.h ****         size_t nextIndex = index + 1;
 212:lib/libDaisy/src/util/FIFO.h ****         if(nextIndex >= bufferSize_)
 213:lib/libDaisy/src/util/FIFO.h ****             nextIndex -= bufferSize_;
 214:lib/libDaisy/src/util/FIFO.h **** 
 215:lib/libDaisy/src/util/FIFO.h ****         while(nextIndex != bufferIn_)
 216:lib/libDaisy/src/util/FIFO.h ****         {
 217:lib/libDaisy/src/util/FIFO.h ****             buffer_[index] = buffer_[nextIndex];
 218:lib/libDaisy/src/util/FIFO.h ****             index++;
 219:lib/libDaisy/src/util/FIFO.h ****             nextIndex++;
 220:lib/libDaisy/src/util/FIFO.h ****             if(index >= bufferSize_)
 221:lib/libDaisy/src/util/FIFO.h ****                 index -= bufferSize_;
 222:lib/libDaisy/src/util/FIFO.h ****             if(nextIndex >= bufferSize_)
 223:lib/libDaisy/src/util/FIFO.h ****                 nextIndex -= bufferSize_;
 224:lib/libDaisy/src/util/FIFO.h ****         }
 225:lib/libDaisy/src/util/FIFO.h **** 
 226:lib/libDaisy/src/util/FIFO.h ****         int32_t nextBufferIn = int32_t(bufferIn_) - 1;
 227:lib/libDaisy/src/util/FIFO.h ****         if(nextBufferIn < 0)
 228:lib/libDaisy/src/util/FIFO.h ****             nextBufferIn += bufferSize_;
 229:lib/libDaisy/src/util/FIFO.h ****         bufferIn_ = size_t(nextBufferIn);
 230:lib/libDaisy/src/util/FIFO.h **** 
 231:lib/libDaisy/src/util/FIFO.h ****         return true;
 232:lib/libDaisy/src/util/FIFO.h ****     }
 233:lib/libDaisy/src/util/FIFO.h **** 
 234:lib/libDaisy/src/util/FIFO.h ****     /** removes all elements from the buffer for which
 235:lib/libDaisy/src/util/FIFO.h ****         (buffer(index) == element) returns true and returns the number of
 236:lib/libDaisy/src/util/FIFO.h ****         elements that were removed. */
 237:lib/libDaisy/src/util/FIFO.h ****     size_t RemoveAllEqualTo(const T& element)
 238:lib/libDaisy/src/util/FIFO.h ****     {
 239:lib/libDaisy/src/util/FIFO.h ****         size_t numRemoved = 0;
 240:lib/libDaisy/src/util/FIFO.h ****         int    idx        = GetNumElements() - 1;
 241:lib/libDaisy/src/util/FIFO.h ****         while(idx >= 0)
 242:lib/libDaisy/src/util/FIFO.h ****         {
 243:lib/libDaisy/src/util/FIFO.h ****             if((*this)[idx] == element)
 244:lib/libDaisy/src/util/FIFO.h ****             {
 245:lib/libDaisy/src/util/FIFO.h ****                 numRemoved++;
 246:lib/libDaisy/src/util/FIFO.h ****                 Remove(idx);
 247:lib/libDaisy/src/util/FIFO.h ****                 // was that the last element?
 248:lib/libDaisy/src/util/FIFO.h ****                 if(idx == int(GetNumElements()) - 1)
 249:lib/libDaisy/src/util/FIFO.h ****                     idx--;
 250:lib/libDaisy/src/util/FIFO.h ****             }
 251:lib/libDaisy/src/util/FIFO.h ****             else
 252:lib/libDaisy/src/util/FIFO.h ****                 idx--;
 253:lib/libDaisy/src/util/FIFO.h ****         }
 254:lib/libDaisy/src/util/FIFO.h ****         return numRemoved;
 255:lib/libDaisy/src/util/FIFO.h ****     }
 256:lib/libDaisy/src/util/FIFO.h **** 
 257:lib/libDaisy/src/util/FIFO.h ****     /** returns the element "idx" positions behind the first element */
 258:lib/libDaisy/src/util/FIFO.h ****     T& operator[](size_t idx)
 259:lib/libDaisy/src/util/FIFO.h ****     {
ARM GAS  E:\Users\Preston\Documents\AppData\Local\Temp\ccW6aDBy.s 			page 21


 260:lib/libDaisy/src/util/FIFO.h ****         if(idx >= GetNumElements())
 261:lib/libDaisy/src/util/FIFO.h ****             // invalid, but better not pass a temporary T() object as a reference...
 262:lib/libDaisy/src/util/FIFO.h ****             return buffer_[0];
 263:lib/libDaisy/src/util/FIFO.h **** 
 264:lib/libDaisy/src/util/FIFO.h ****         size_t index = bufferOut_ + idx;
 265:lib/libDaisy/src/util/FIFO.h ****         if(index >= bufferSize_)
 266:lib/libDaisy/src/util/FIFO.h ****             index -= bufferSize_;
 267:lib/libDaisy/src/util/FIFO.h ****         return buffer_[index];
 268:lib/libDaisy/src/util/FIFO.h ****     }
 269:lib/libDaisy/src/util/FIFO.h **** 
 270:lib/libDaisy/src/util/FIFO.h ****     /** returns the element "idx" positions behind the first element */
 271:lib/libDaisy/src/util/FIFO.h ****     const T& operator[](size_t idx) const
 272:lib/libDaisy/src/util/FIFO.h ****     {
 273:lib/libDaisy/src/util/FIFO.h ****         if(idx >= GetNumElements())
 274:lib/libDaisy/src/util/FIFO.h ****             // invalid, but better not pass a temporary T() object as a reference...
 275:lib/libDaisy/src/util/FIFO.h ****             return buffer_[0];
 276:lib/libDaisy/src/util/FIFO.h **** 
 277:lib/libDaisy/src/util/FIFO.h ****         size_t index = bufferOut_ + idx;
 278:lib/libDaisy/src/util/FIFO.h ****         if(index >= bufferSize_)
 279:lib/libDaisy/src/util/FIFO.h ****             index -= bufferSize_;
 280:lib/libDaisy/src/util/FIFO.h ****         return buffer_[index];
 281:lib/libDaisy/src/util/FIFO.h ****     }
 282:lib/libDaisy/src/util/FIFO.h **** 
 283:lib/libDaisy/src/util/FIFO.h ****     /** returns the total capacity */
 284:lib/libDaisy/src/util/FIFO.h ****     size_t GetCapacity() const { return bufferSize_ - 1; }
 285:lib/libDaisy/src/util/FIFO.h **** 
 286:lib/libDaisy/src/util/FIFO.h ****   private:
 287:lib/libDaisy/src/util/FIFO.h ****     FIFOBase(const FIFOBase<T>&) {} // non copyable
 288:lib/libDaisy/src/util/FIFO.h **** 
 289:lib/libDaisy/src/util/FIFO.h ****   private:
 290:lib/libDaisy/src/util/FIFO.h ****     T*           buffer_;
 291:lib/libDaisy/src/util/FIFO.h ****     const size_t bufferSize_;
 292:lib/libDaisy/src/util/FIFO.h ****     size_t       bufferIn_;
 293:lib/libDaisy/src/util/FIFO.h ****     size_t       bufferOut_;
 294:lib/libDaisy/src/util/FIFO.h **** };
 295:lib/libDaisy/src/util/FIFO.h **** 
 296:lib/libDaisy/src/util/FIFO.h **** /** A simple FIFO ring buffer with a fixed size. */
 297:lib/libDaisy/src/util/FIFO.h **** template <typename T, size_t capacity>
 298:lib/libDaisy/src/util/FIFO.h **** class FIFO : public FIFOBase<T>
 120              		.loc 8 298 7 is_stmt 1 view -0
 121              		.cfi_startproc
 122              		@ args = 0, pretend = 0, frame = 0
 123              		@ frame_needed = 0, uses_anonymous_args = 0
 124              		@ link register save eliminated.
 125              	.LBB502:
 126              	.LBI502:
  42:lib/libDaisy/src/util/FIFO.h **** 
 127              		.loc 8 42 5 view .LVU18
  42:lib/libDaisy/src/util/FIFO.h **** 
 128              		.loc 8 42 5 is_stmt 0 view .LVU19
 129              	.LBE502:
 130              		.loc 8 298 7 view .LVU20
 131 0000 7047     		bx	lr
 132              		.cfi_endproc
 133              	.LFE2679:
 135              		.weak	_ZN5daisy4FIFOINS_9MidiEventELj128EED1Ev
 136              		.thumb_set _ZN5daisy4FIFOINS_9MidiEventELj128EED1Ev,_ZN5daisy4FIFOINS_9MidiEventELj128EED2Ev
ARM GAS  E:\Users\Preston\Documents\AppData\Local\Temp\ccW6aDBy.s 			page 22


 137 0002 00BF     		.section	.text._ZN5daisy11OledDisplayINS_13SSD130xDriverILj128ELj64ENS_19SSD130xI2CTransportEEEED2
 138              		.align	1
 139              		.p2align 2,,3
 140              		.weak	_ZN5daisy11OledDisplayINS_13SSD130xDriverILj128ELj64ENS_19SSD130xI2CTransportEEEED2Ev
 141              		.syntax unified
 142              		.thumb
 143              		.thumb_func
 144              		.fpu fpv5-d16
 146              	_ZN5daisy11OledDisplayINS_13SSD130xDriverILj128ELj64ENS_19SSD130xI2CTransportEEEED2Ev:
 147              	.LVL6:
 148              	.LFB2682:
  18:lib/libDaisy/src/hid/disp/oled_display.h **** 
 149              		.loc 6 18 13 is_stmt 1 view -0
 150              		.cfi_startproc
 151              		@ args = 0, pretend = 0, frame = 0
 152              		@ frame_needed = 0, uses_anonymous_args = 0
 153              		@ link register save eliminated.
 154              	.LBB503:
 155              	.LBI503:
 156              		.file 9 "lib/libDaisy/src/hid/disp/display.h"
   1:lib/libDaisy/src/hid/disp/display.h **** #pragma once
   2:lib/libDaisy/src/hid/disp/display.h **** #ifndef DSY_DISPLAY_H
   3:lib/libDaisy/src/hid/disp/display.h **** #define DSY_DISPLAY_H /**< Macro */
   4:lib/libDaisy/src/hid/disp/display.h **** #include <cmath>
   5:lib/libDaisy/src/hid/disp/display.h **** #include "util/oled_fonts.h"
   6:lib/libDaisy/src/hid/disp/display.h **** #include "daisy_core.h"
   7:lib/libDaisy/src/hid/disp/display.h **** #include "graphics_common.h"
   8:lib/libDaisy/src/hid/disp/display.h **** 
   9:lib/libDaisy/src/hid/disp/display.h **** #ifndef deg2rad
  10:lib/libDaisy/src/hid/disp/display.h **** #define deg2rad(deg) ((deg)*3.141592 / 180.0)
  11:lib/libDaisy/src/hid/disp/display.h **** #endif
  12:lib/libDaisy/src/hid/disp/display.h **** 
  13:lib/libDaisy/src/hid/disp/display.h **** namespace daisy
  14:lib/libDaisy/src/hid/disp/display.h **** {
  15:lib/libDaisy/src/hid/disp/display.h **** /** 
  16:lib/libDaisy/src/hid/disp/display.h ****  * This interface is used as a base class for all types of 1bit-per-pixel
  17:lib/libDaisy/src/hid/disp/display.h ****  * graphics displays.
  18:lib/libDaisy/src/hid/disp/display.h **** */
  19:lib/libDaisy/src/hid/disp/display.h **** class OneBitGraphicsDisplay
  20:lib/libDaisy/src/hid/disp/display.h **** {
  21:lib/libDaisy/src/hid/disp/display.h ****   public:
  22:lib/libDaisy/src/hid/disp/display.h ****     OneBitGraphicsDisplay() {}
  23:lib/libDaisy/src/hid/disp/display.h ****     virtual ~OneBitGraphicsDisplay() {}
  24:lib/libDaisy/src/hid/disp/display.h **** 
  25:lib/libDaisy/src/hid/disp/display.h ****     virtual uint16_t Height() const = 0;
  26:lib/libDaisy/src/hid/disp/display.h ****     virtual uint16_t Width() const  = 0;
  27:lib/libDaisy/src/hid/disp/display.h **** 
  28:lib/libDaisy/src/hid/disp/display.h ****     Rectangle GetBounds() const
  29:lib/libDaisy/src/hid/disp/display.h ****     {
  30:lib/libDaisy/src/hid/disp/display.h ****         return Rectangle(int16_t(Width()), int16_t(Height()));
  31:lib/libDaisy/src/hid/disp/display.h ****     }
  32:lib/libDaisy/src/hid/disp/display.h **** 
  33:lib/libDaisy/src/hid/disp/display.h **** 
  34:lib/libDaisy/src/hid/disp/display.h ****     size_t CurrentX() { return currentX_; };
  35:lib/libDaisy/src/hid/disp/display.h ****     size_t CurrentY() { return currentY_; };
  36:lib/libDaisy/src/hid/disp/display.h **** 
  37:lib/libDaisy/src/hid/disp/display.h ****     /** 
ARM GAS  E:\Users\Preston\Documents\AppData\Local\Temp\ccW6aDBy.s 			page 23


  38:lib/libDaisy/src/hid/disp/display.h ****     Fills the entire display with either on/off.
  39:lib/libDaisy/src/hid/disp/display.h ****     \param on Sets on or off.
  40:lib/libDaisy/src/hid/disp/display.h ****     */
  41:lib/libDaisy/src/hid/disp/display.h ****     virtual void Fill(bool on) = 0;
  42:lib/libDaisy/src/hid/disp/display.h **** 
  43:lib/libDaisy/src/hid/disp/display.h ****     /**
  44:lib/libDaisy/src/hid/disp/display.h ****     Sets the pixel at the specified coordinate to be on/off.
  45:lib/libDaisy/src/hid/disp/display.h ****     \param x   x Coordinate
  46:lib/libDaisy/src/hid/disp/display.h ****     \param y   y coordinate
  47:lib/libDaisy/src/hid/disp/display.h ****     \param on  on or off
  48:lib/libDaisy/src/hid/disp/display.h ****     */
  49:lib/libDaisy/src/hid/disp/display.h ****     virtual void DrawPixel(uint_fast8_t x, uint_fast8_t y, bool on) = 0;
  50:lib/libDaisy/src/hid/disp/display.h **** 
  51:lib/libDaisy/src/hid/disp/display.h ****     /**
  52:lib/libDaisy/src/hid/disp/display.h ****     Draws a line from (x1, y1) to (y1, y2)
  53:lib/libDaisy/src/hid/disp/display.h ****     \param x1  x Coordinate of the starting point
  54:lib/libDaisy/src/hid/disp/display.h ****     \param y1  y Coordinate of the starting point
  55:lib/libDaisy/src/hid/disp/display.h ****     \param x2  x Coordinate of the ending point
  56:lib/libDaisy/src/hid/disp/display.h ****     \param y2  y Coordinate of the ending point
  57:lib/libDaisy/src/hid/disp/display.h ****     \param on  on or off
  58:lib/libDaisy/src/hid/disp/display.h ****     */
  59:lib/libDaisy/src/hid/disp/display.h ****     virtual void DrawLine(uint_fast8_t x1,
  60:lib/libDaisy/src/hid/disp/display.h ****                           uint_fast8_t y1,
  61:lib/libDaisy/src/hid/disp/display.h ****                           uint_fast8_t x2,
  62:lib/libDaisy/src/hid/disp/display.h ****                           uint_fast8_t y2,
  63:lib/libDaisy/src/hid/disp/display.h ****                           bool         on)
  64:lib/libDaisy/src/hid/disp/display.h ****         = 0;
  65:lib/libDaisy/src/hid/disp/display.h **** 
  66:lib/libDaisy/src/hid/disp/display.h ****     /**
  67:lib/libDaisy/src/hid/disp/display.h ****     Draws a rectangle based on two coordinates.
  68:lib/libDaisy/src/hid/disp/display.h ****     \param x1 x Coordinate of the first point
  69:lib/libDaisy/src/hid/disp/display.h ****     \param y1 y Coordinate of the first point
  70:lib/libDaisy/src/hid/disp/display.h ****     \param x2 x Coordinate of the second point
  71:lib/libDaisy/src/hid/disp/display.h ****     \param y2 y Coordinate of the second point
  72:lib/libDaisy/src/hid/disp/display.h ****     \param on on or off
  73:lib/libDaisy/src/hid/disp/display.h ****     \param fill fill the rectangle or draw only the outline
  74:lib/libDaisy/src/hid/disp/display.h ****     */
  75:lib/libDaisy/src/hid/disp/display.h ****     virtual void DrawRect(uint_fast8_t x1,
  76:lib/libDaisy/src/hid/disp/display.h ****                           uint_fast8_t y1,
  77:lib/libDaisy/src/hid/disp/display.h ****                           uint_fast8_t x2,
  78:lib/libDaisy/src/hid/disp/display.h ****                           uint_fast8_t y2,
  79:lib/libDaisy/src/hid/disp/display.h ****                           bool         on,
  80:lib/libDaisy/src/hid/disp/display.h ****                           bool         fill = false)
  81:lib/libDaisy/src/hid/disp/display.h ****         = 0;
  82:lib/libDaisy/src/hid/disp/display.h **** 
  83:lib/libDaisy/src/hid/disp/display.h ****     /**
  84:lib/libDaisy/src/hid/disp/display.h ****     Draws a rectangle.
  85:lib/libDaisy/src/hid/disp/display.h ****     \param rect the rectangle
  86:lib/libDaisy/src/hid/disp/display.h ****     \param on   on or off
  87:lib/libDaisy/src/hid/disp/display.h ****     \param fill fill the rectangle or draw only the outline
  88:lib/libDaisy/src/hid/disp/display.h ****     */
  89:lib/libDaisy/src/hid/disp/display.h ****     void DrawRect(const Rectangle& rect, bool on, bool fill = false)
  90:lib/libDaisy/src/hid/disp/display.h ****     {
  91:lib/libDaisy/src/hid/disp/display.h ****         DrawRect(rect.GetX(),
  92:lib/libDaisy/src/hid/disp/display.h ****                  rect.GetY(),
  93:lib/libDaisy/src/hid/disp/display.h ****                  rect.GetRight(),
  94:lib/libDaisy/src/hid/disp/display.h ****                  rect.GetBottom(),
ARM GAS  E:\Users\Preston\Documents\AppData\Local\Temp\ccW6aDBy.s 			page 24


  95:lib/libDaisy/src/hid/disp/display.h ****                  on,
  96:lib/libDaisy/src/hid/disp/display.h ****                  fill);
  97:lib/libDaisy/src/hid/disp/display.h ****     }
  98:lib/libDaisy/src/hid/disp/display.h **** 
  99:lib/libDaisy/src/hid/disp/display.h ****     /**
 100:lib/libDaisy/src/hid/disp/display.h ****     Draws an arc around the specified coordinate
 101:lib/libDaisy/src/hid/disp/display.h ****     \param x           x Coordinate of the center of the arc
 102:lib/libDaisy/src/hid/disp/display.h ****     \param y           y Coordinate of the center of the arc
 103:lib/libDaisy/src/hid/disp/display.h ****     \param radius      radius of the arc
 104:lib/libDaisy/src/hid/disp/display.h ****     \param start_angle angle where to start the arc
 105:lib/libDaisy/src/hid/disp/display.h ****     \param sweep       total angle of the arc
 106:lib/libDaisy/src/hid/disp/display.h ****     \param on  on or off
 107:lib/libDaisy/src/hid/disp/display.h ****     */
 108:lib/libDaisy/src/hid/disp/display.h ****     virtual void DrawArc(uint_fast8_t x,
 109:lib/libDaisy/src/hid/disp/display.h ****                          uint_fast8_t y,
 110:lib/libDaisy/src/hid/disp/display.h ****                          uint_fast8_t radius,
 111:lib/libDaisy/src/hid/disp/display.h ****                          int_fast16_t start_angle,
 112:lib/libDaisy/src/hid/disp/display.h ****                          int_fast16_t sweep,
 113:lib/libDaisy/src/hid/disp/display.h ****                          bool         on)
 114:lib/libDaisy/src/hid/disp/display.h ****         = 0;
 115:lib/libDaisy/src/hid/disp/display.h **** 
 116:lib/libDaisy/src/hid/disp/display.h ****     /**
 117:lib/libDaisy/src/hid/disp/display.h ****     Draws a circle around the specified coordinate
 118:lib/libDaisy/src/hid/disp/display.h ****     \param x           x Coordinate of the center of the circle
 119:lib/libDaisy/src/hid/disp/display.h ****     \param y           y Coordinate of the center of the circle
 120:lib/libDaisy/src/hid/disp/display.h ****     \param radius      radius of the circle
 121:lib/libDaisy/src/hid/disp/display.h ****     \param on  on or off
 122:lib/libDaisy/src/hid/disp/display.h ****     */
 123:lib/libDaisy/src/hid/disp/display.h ****     void
 124:lib/libDaisy/src/hid/disp/display.h ****     DrawCircle(uint_fast8_t x, uint_fast8_t y, uint_fast8_t radius, bool on)
 125:lib/libDaisy/src/hid/disp/display.h ****     {
 126:lib/libDaisy/src/hid/disp/display.h ****         DrawArc(x, y, radius, 0, 360, on);
 127:lib/libDaisy/src/hid/disp/display.h ****     };
 128:lib/libDaisy/src/hid/disp/display.h **** 
 129:lib/libDaisy/src/hid/disp/display.h ****     /** 
 130:lib/libDaisy/src/hid/disp/display.h ****     Writes the character with the specific FontDef
 131:lib/libDaisy/src/hid/disp/display.h ****     to the display buffer at the current Cursor position.
 132:lib/libDaisy/src/hid/disp/display.h ****     \param ch character to be written
 133:lib/libDaisy/src/hid/disp/display.h ****     \param font font to be written in
 134:lib/libDaisy/src/hid/disp/display.h ****     \param on    on or off
 135:lib/libDaisy/src/hid/disp/display.h ****     \return &
 136:lib/libDaisy/src/hid/disp/display.h ****     */
 137:lib/libDaisy/src/hid/disp/display.h ****     virtual char WriteChar(char ch, FontDef font, bool on) = 0;
 138:lib/libDaisy/src/hid/disp/display.h **** 
 139:lib/libDaisy/src/hid/disp/display.h ****     /** 
 140:lib/libDaisy/src/hid/disp/display.h ****     Similar to WriteChar, except it will handle an entire String.
 141:lib/libDaisy/src/hid/disp/display.h ****     Wrapping does not happen automatically, so the width
 142:lib/libDaisy/src/hid/disp/display.h ****     of the string must be kept within the dimensions of the screen.
 143:lib/libDaisy/src/hid/disp/display.h ****     \param str string to be written
 144:lib/libDaisy/src/hid/disp/display.h ****     \param font font to use
 145:lib/libDaisy/src/hid/disp/display.h ****     \param on  on or off
 146:lib/libDaisy/src/hid/disp/display.h ****     \return &
 147:lib/libDaisy/src/hid/disp/display.h ****     */
 148:lib/libDaisy/src/hid/disp/display.h ****     virtual char WriteString(const char* str, FontDef font, bool on) = 0;
 149:lib/libDaisy/src/hid/disp/display.h **** 
 150:lib/libDaisy/src/hid/disp/display.h ****     /** 
 151:lib/libDaisy/src/hid/disp/display.h ****     Similar to WriteString but justified within a bounding box.
ARM GAS  E:\Users\Preston\Documents\AppData\Local\Temp\ccW6aDBy.s 			page 25


 152:lib/libDaisy/src/hid/disp/display.h ****     \param str          string to be written
 153:lib/libDaisy/src/hid/disp/display.h ****     \param font         font to use
 154:lib/libDaisy/src/hid/disp/display.h ****     \param boundingBox  the bounding box to draw the text in
 155:lib/libDaisy/src/hid/disp/display.h ****     \param alignment    the alignment to use
 156:lib/libDaisy/src/hid/disp/display.h ****     \param on           on or off
 157:lib/libDaisy/src/hid/disp/display.h ****     \return The rectangle that was drawn to
 158:lib/libDaisy/src/hid/disp/display.h ****     */
 159:lib/libDaisy/src/hid/disp/display.h ****     virtual Rectangle WriteStringAligned(const char*    str,
 160:lib/libDaisy/src/hid/disp/display.h ****                                          const FontDef& font,
 161:lib/libDaisy/src/hid/disp/display.h ****                                          Rectangle      boundingBox,
 162:lib/libDaisy/src/hid/disp/display.h ****                                          Alignment      alignment,
 163:lib/libDaisy/src/hid/disp/display.h ****                                          bool           on)
 164:lib/libDaisy/src/hid/disp/display.h ****         = 0;
 165:lib/libDaisy/src/hid/disp/display.h **** 
 166:lib/libDaisy/src/hid/disp/display.h ****     /** 
 167:lib/libDaisy/src/hid/disp/display.h ****     Moves the 'Cursor' position used for WriteChar, and WriteStr to the specified coordinate.
 168:lib/libDaisy/src/hid/disp/display.h ****     \param x x pos
 169:lib/libDaisy/src/hid/disp/display.h ****     \param y y pos
 170:lib/libDaisy/src/hid/disp/display.h ****     */
 171:lib/libDaisy/src/hid/disp/display.h ****     void SetCursor(uint16_t x, uint16_t y)
 172:lib/libDaisy/src/hid/disp/display.h ****     {
 173:lib/libDaisy/src/hid/disp/display.h ****         currentX_ = (x >= Width()) ? Width() - 1 : x;
 174:lib/libDaisy/src/hid/disp/display.h ****         currentY_ = (y >= Height()) ? Height() - 1 : y;
 175:lib/libDaisy/src/hid/disp/display.h ****     }
 176:lib/libDaisy/src/hid/disp/display.h **** 
 177:lib/libDaisy/src/hid/disp/display.h ****     /** 
 178:lib/libDaisy/src/hid/disp/display.h ****     Writes the current display buffer to the OLED device using SPI or I2C depending on 
 179:lib/libDaisy/src/hid/disp/display.h ****     how the object was initialized.
 180:lib/libDaisy/src/hid/disp/display.h ****     */
 181:lib/libDaisy/src/hid/disp/display.h ****     virtual void Update() = 0;
 182:lib/libDaisy/src/hid/disp/display.h **** 
 183:lib/libDaisy/src/hid/disp/display.h ****   protected:
 184:lib/libDaisy/src/hid/disp/display.h ****     uint16_t currentX_;
 185:lib/libDaisy/src/hid/disp/display.h ****     uint16_t currentY_;
 186:lib/libDaisy/src/hid/disp/display.h **** };
 187:lib/libDaisy/src/hid/disp/display.h **** 
 188:lib/libDaisy/src/hid/disp/display.h **** /** This class is intended as a intermediary class for your actual implementation of the OneBitGrap
 189:lib/libDaisy/src/hid/disp/display.h ****  *  interface. It uses the CRTP design pattern where the template argument is the child class. It p
 190:lib/libDaisy/src/hid/disp/display.h ****  *  implementations for most of the functions, except DrawPixel(), Update() and Fill(), which you'l
 191:lib/libDaisy/src/hid/disp/display.h ****  *  to provide in your child class.
 192:lib/libDaisy/src/hid/disp/display.h ****  *  The main goal of this class is to provide common drawing functions without relying on massive a
 193:lib/libDaisy/src/hid/disp/display.h ****  *  virtual function calls that would result in a performance loss. To achieve this, any drawing fu
 194:lib/libDaisy/src/hid/disp/display.h ****  *  is implemented here and internally calls other drawing functions (e.g. DrawRect() which interna
 195:lib/libDaisy/src/hid/disp/display.h ****  *  DrawPixel() and DrawLine()) makes these calls via the qualified name of these functions to expl
 196:lib/libDaisy/src/hid/disp/display.h ****  *  suppress the virtual dispatch mechanism like this:
 197:lib/libDaisy/src/hid/disp/display.h ****  * 
 198:lib/libDaisy/src/hid/disp/display.h ****  *      ChildType::DrawPixel(...); // no virtual function call; direct call into the child class fu
 199:lib/libDaisy/src/hid/disp/display.h ****  *  
 200:lib/libDaisy/src/hid/disp/display.h ****  *  To create a custom OneBitGraphicsDisplay implementation, you can 
 201:lib/libDaisy/src/hid/disp/display.h ****  *  A) inherit from OneBitGraphicsDisplay directly and provide all the drawing functions yourself
 202:lib/libDaisy/src/hid/disp/display.h ****  *  B) Inherit from OneBitGraphicsDisplayImpl and only provide DrawPixel(), Fill() and Update()
 203:lib/libDaisy/src/hid/disp/display.h ****  *     like this:
 204:lib/libDaisy/src/hid/disp/display.h ****  *  
 205:lib/libDaisy/src/hid/disp/display.h ****  *      class MyDisplayClass : public OneBitGraphicsDisplayImpl<MyDisplayClass> 
 206:lib/libDaisy/src/hid/disp/display.h ****  *      {
 207:lib/libDaisy/src/hid/disp/display.h ****  *      public:
 208:lib/libDaisy/src/hid/disp/display.h ****  *          void Fill() override { ... };
ARM GAS  E:\Users\Preston\Documents\AppData\Local\Temp\ccW6aDBy.s 			page 26


 209:lib/libDaisy/src/hid/disp/display.h ****  *          void DrawPixel(uint_fast8_t x, uint_fast8_t y, bool on) override { ... };
 210:lib/libDaisy/src/hid/disp/display.h ****  *          void Update() override { ... }
 211:lib/libDaisy/src/hid/disp/display.h ****  *      };
 212:lib/libDaisy/src/hid/disp/display.h ****  *  
 213:lib/libDaisy/src/hid/disp/display.h ****  */
 214:lib/libDaisy/src/hid/disp/display.h **** template <class ChildType>
 215:lib/libDaisy/src/hid/disp/display.h **** class OneBitGraphicsDisplayImpl : public OneBitGraphicsDisplay
 216:lib/libDaisy/src/hid/disp/display.h **** {
 217:lib/libDaisy/src/hid/disp/display.h ****   public:
 218:lib/libDaisy/src/hid/disp/display.h ****     OneBitGraphicsDisplayImpl() {}
 219:lib/libDaisy/src/hid/disp/display.h ****     virtual ~OneBitGraphicsDisplayImpl() {}
 157              		.loc 9 219 13 view .LVU22
 158              	.LBB504:
 159              	.LBI504:
  23:lib/libDaisy/src/hid/disp/display.h **** 
 160              		.loc 9 23 13 view .LVU23
  23:lib/libDaisy/src/hid/disp/display.h **** 
 161              		.loc 9 23 13 is_stmt 0 view .LVU24
 162              	.LBE504:
 163              	.LBE503:
  18:lib/libDaisy/src/hid/disp/oled_display.h **** 
 164              		.loc 6 18 29 view .LVU25
 165 0000 7047     		bx	lr
 166              		.cfi_endproc
 167              	.LFE2682:
 169              		.weak	_ZN5daisy11OledDisplayINS_13SSD130xDriverILj128ELj64ENS_19SSD130xI2CTransportEEEED1Ev
 170              		.thumb_set _ZN5daisy11OledDisplayINS_13SSD130xDriverILj128ELj64ENS_19SSD130xI2CTransportEEEED1Ev,_
 171 0002 00BF     		.section	.text._ZNK5daisy11OledDisplayINS_13SSD130xDriverILj128ELj64ENS_19SSD130xI2CTransportEEEE6
 172              		.align	1
 173              		.p2align 2,,3
 174              		.weak	_ZNK5daisy11OledDisplayINS_13SSD130xDriverILj128ELj64ENS_19SSD130xI2CTransportEEEE6HeightEv
 175              		.syntax unified
 176              		.thumb
 177              		.thumb_func
 178              		.fpu fpv5-d16
 180              	_ZNK5daisy11OledDisplayINS_13SSD130xDriverILj128ELj64ENS_19SSD130xI2CTransportEEEE6HeightEv:
 181              	.LVL7:
 182              	.LFB2685:
  27:lib/libDaisy/src/hid/disp/oled_display.h ****     uint16_t Width() const override { return driver_.Width(); }
 183              		.loc 6 27 14 is_stmt 1 view -0
 184              		.cfi_startproc
 185              		@ args = 0, pretend = 0, frame = 0
 186              		@ frame_needed = 0, uses_anonymous_args = 0
 187              		@ link register save eliminated.
  27:lib/libDaisy/src/hid/disp/oled_display.h ****     uint16_t Width() const override { return driver_.Width(); }
 188              		.loc 6 27 65 is_stmt 0 view .LVU27
 189 0000 4020     		movs	r0, #64
 190              	.LVL8:
  27:lib/libDaisy/src/hid/disp/oled_display.h ****     uint16_t Width() const override { return driver_.Width(); }
 191              		.loc 6 27 65 view .LVU28
 192 0002 7047     		bx	lr
 193              		.cfi_endproc
 194              	.LFE2685:
 196              		.section	.text._ZNK5daisy11OledDisplayINS_13SSD130xDriverILj128ELj64ENS_19SSD130xI2CTransportEEEE5
 197              		.align	1
 198              		.p2align 2,,3
 199              		.weak	_ZNK5daisy11OledDisplayINS_13SSD130xDriverILj128ELj64ENS_19SSD130xI2CTransportEEEE5WidthEv
ARM GAS  E:\Users\Preston\Documents\AppData\Local\Temp\ccW6aDBy.s 			page 27


 200              		.syntax unified
 201              		.thumb
 202              		.thumb_func
 203              		.fpu fpv5-d16
 205              	_ZNK5daisy11OledDisplayINS_13SSD130xDriverILj128ELj64ENS_19SSD130xI2CTransportEEEE5WidthEv:
 206              	.LVL9:
 207              	.LFB2686:
  28:lib/libDaisy/src/hid/disp/oled_display.h **** 
 208              		.loc 6 28 14 is_stmt 1 view -0
 209              		.cfi_startproc
 210              		@ args = 0, pretend = 0, frame = 0
 211              		@ frame_needed = 0, uses_anonymous_args = 0
 212              		@ link register save eliminated.
  28:lib/libDaisy/src/hid/disp/oled_display.h **** 
 213              		.loc 6 28 63 is_stmt 0 view .LVU30
 214 0000 8020     		movs	r0, #128
 215              	.LVL10:
  28:lib/libDaisy/src/hid/disp/oled_display.h **** 
 216              		.loc 6 28 63 view .LVU31
 217 0002 7047     		bx	lr
 218              		.cfi_endproc
 219              	.LFE2686:
 221              		.section	.text._ZN5daisy11MidiHandlerINS_17MidiUartTransportEED2Ev,"axG",%progbits,_ZN5daisy11Midi
 222              		.align	1
 223              		.p2align 2,,3
 224              		.weak	_ZN5daisy11MidiHandlerINS_17MidiUartTransportEED2Ev
 225              		.syntax unified
 226              		.thumb
 227              		.thumb_func
 228              		.fpu fpv5-d16
 230              	_ZN5daisy11MidiHandlerINS_17MidiUartTransportEED2Ev:
 231              	.LVL11:
 232              	.LFB2692:
 233              		.file 10 "lib/libDaisy/src/hid/midi.h"
   1:lib/libDaisy/src/hid/midi.h **** #pragma once
   2:lib/libDaisy/src/hid/midi.h **** #ifndef DSY_MIDI_H
   3:lib/libDaisy/src/hid/midi.h **** #define DSY_MIDI_H
   4:lib/libDaisy/src/hid/midi.h **** 
   5:lib/libDaisy/src/hid/midi.h **** #include <stdint.h>
   6:lib/libDaisy/src/hid/midi.h **** #include <stdlib.h>
   7:lib/libDaisy/src/hid/midi.h **** #include <algorithm>
   8:lib/libDaisy/src/hid/midi.h **** #include "per/uart.h"
   9:lib/libDaisy/src/hid/midi.h **** #include "util/ringbuffer.h"
  10:lib/libDaisy/src/hid/midi.h **** #include "util/FIFO.h"
  11:lib/libDaisy/src/hid/midi.h **** #include "hid/midi_parser.h"
  12:lib/libDaisy/src/hid/midi.h **** #include "hid/usb_midi.h"
  13:lib/libDaisy/src/hid/midi.h **** #include "sys/dma.h"
  14:lib/libDaisy/src/hid/midi.h **** #include "sys/system.h"
  15:lib/libDaisy/src/hid/midi.h **** 
  16:lib/libDaisy/src/hid/midi.h **** namespace daisy
  17:lib/libDaisy/src/hid/midi.h **** {
  18:lib/libDaisy/src/hid/midi.h **** /** @brief   Transport layer for sending and receiving MIDI data over UART
  19:lib/libDaisy/src/hid/midi.h ****  *  @details This is the mode of communication used for TRS and DIN MIDI
  20:lib/libDaisy/src/hid/midi.h ****  *           There is an additional 2kB of RAM data used within this class
  21:lib/libDaisy/src/hid/midi.h ****  *           for processing bulk data from the UART peripheral
  22:lib/libDaisy/src/hid/midi.h ****  *  @ingroup midi
  23:lib/libDaisy/src/hid/midi.h **** */
ARM GAS  E:\Users\Preston\Documents\AppData\Local\Temp\ccW6aDBy.s 			page 28


  24:lib/libDaisy/src/hid/midi.h **** class MidiUartTransport
  25:lib/libDaisy/src/hid/midi.h **** {
  26:lib/libDaisy/src/hid/midi.h ****   public:
  27:lib/libDaisy/src/hid/midi.h ****     typedef void (*MidiRxParseCallback)(uint8_t* data,
  28:lib/libDaisy/src/hid/midi.h ****                                         size_t   size,
  29:lib/libDaisy/src/hid/midi.h ****                                         void*    context);
  30:lib/libDaisy/src/hid/midi.h **** 
  31:lib/libDaisy/src/hid/midi.h ****     MidiUartTransport() {}
  32:lib/libDaisy/src/hid/midi.h ****     ~MidiUartTransport() {}
  33:lib/libDaisy/src/hid/midi.h **** 
  34:lib/libDaisy/src/hid/midi.h ****     /** @brief Configuration structure for UART MIDI */
  35:lib/libDaisy/src/hid/midi.h ****     struct Config
  36:lib/libDaisy/src/hid/midi.h ****     {
  37:lib/libDaisy/src/hid/midi.h ****         UartHandler::Config::Peripheral periph;
  38:lib/libDaisy/src/hid/midi.h ****         dsy_gpio_pin                    rx;
  39:lib/libDaisy/src/hid/midi.h ****         dsy_gpio_pin                    tx;
  40:lib/libDaisy/src/hid/midi.h **** 
  41:lib/libDaisy/src/hid/midi.h ****         /** Pointer to buffer for DMA UART rx byte transfer in background.
  42:lib/libDaisy/src/hid/midi.h ****          *
  43:lib/libDaisy/src/hid/midi.h ****          *  @details By default this uses a shared buffer in DMA_BUFFER_MEM_SECTION,
  44:lib/libDaisy/src/hid/midi.h ****          *           which can only be utilized for a single UART peripheral. To
  45:lib/libDaisy/src/hid/midi.h ****          *           use MIDI with multiple UART peripherals, you must provide your own
  46:lib/libDaisy/src/hid/midi.h ****          *           buffer, allocated to a DMA-capable memory section.
  47:lib/libDaisy/src/hid/midi.h ****          */
  48:lib/libDaisy/src/hid/midi.h ****         uint8_t* rx_buffer;
  49:lib/libDaisy/src/hid/midi.h **** 
  50:lib/libDaisy/src/hid/midi.h ****         /** Size in bytes of rx_buffer.
  51:lib/libDaisy/src/hid/midi.h ****          *
  52:lib/libDaisy/src/hid/midi.h ****          *  @details This size determines the maximum Rx bytes readable by the UART in the backgrou
  53:lib/libDaisy/src/hid/midi.h ****          *           By default it's set to the size of the default shared rx_buffer (256 bytes).
  54:lib/libDaisy/src/hid/midi.h ****          *           While much smaller sizes can be used, data can get missed if the buffer is too
  55:lib/libDaisy/src/hid/midi.h ****          */
  56:lib/libDaisy/src/hid/midi.h ****         size_t rx_buffer_size;
  57:lib/libDaisy/src/hid/midi.h **** 
  58:lib/libDaisy/src/hid/midi.h ****         Config();
  59:lib/libDaisy/src/hid/midi.h ****     };
  60:lib/libDaisy/src/hid/midi.h **** 
  61:lib/libDaisy/src/hid/midi.h ****     /** @brief Initialization of UART using config struct */
  62:lib/libDaisy/src/hid/midi.h ****     inline void Init(Config config)
  63:lib/libDaisy/src/hid/midi.h ****     {
  64:lib/libDaisy/src/hid/midi.h ****         UartHandler::Config uart_config;
  65:lib/libDaisy/src/hid/midi.h **** 
  66:lib/libDaisy/src/hid/midi.h ****         //defaults
  67:lib/libDaisy/src/hid/midi.h ****         uart_config.baudrate   = 31250;
  68:lib/libDaisy/src/hid/midi.h ****         uart_config.stopbits   = UartHandler::Config::StopBits::BITS_1;
  69:lib/libDaisy/src/hid/midi.h ****         uart_config.parity     = UartHandler::Config::Parity::NONE;
  70:lib/libDaisy/src/hid/midi.h ****         uart_config.mode       = UartHandler::Config::Mode::TX_RX;
  71:lib/libDaisy/src/hid/midi.h ****         uart_config.wordlength = UartHandler::Config::WordLength::BITS_8;
  72:lib/libDaisy/src/hid/midi.h **** 
  73:lib/libDaisy/src/hid/midi.h ****         //user settings
  74:lib/libDaisy/src/hid/midi.h ****         uart_config.periph        = config.periph;
  75:lib/libDaisy/src/hid/midi.h ****         uart_config.pin_config.rx = config.rx;
  76:lib/libDaisy/src/hid/midi.h ****         uart_config.pin_config.tx = config.tx;
  77:lib/libDaisy/src/hid/midi.h **** 
  78:lib/libDaisy/src/hid/midi.h ****         rx_buffer      = config.rx_buffer;
  79:lib/libDaisy/src/hid/midi.h ****         rx_buffer_size = config.rx_buffer_size;
  80:lib/libDaisy/src/hid/midi.h **** 
ARM GAS  E:\Users\Preston\Documents\AppData\Local\Temp\ccW6aDBy.s 			page 29


  81:lib/libDaisy/src/hid/midi.h ****         /** zero the buffer to ensure emptiness regardless of source memory */
  82:lib/libDaisy/src/hid/midi.h ****         std::fill(rx_buffer, rx_buffer + rx_buffer_size, 0);
  83:lib/libDaisy/src/hid/midi.h **** 
  84:lib/libDaisy/src/hid/midi.h ****         uart_.Init(uart_config);
  85:lib/libDaisy/src/hid/midi.h ****     }
  86:lib/libDaisy/src/hid/midi.h **** 
  87:lib/libDaisy/src/hid/midi.h ****     /** @brief Start the UART peripheral in listening mode.
  88:lib/libDaisy/src/hid/midi.h ****      *  This will fill an internal data structure in the background */
  89:lib/libDaisy/src/hid/midi.h ****     inline void StartRx(MidiRxParseCallback parse_callback, void* context)
  90:lib/libDaisy/src/hid/midi.h ****     {
  91:lib/libDaisy/src/hid/midi.h ****         parse_context_  = context;
  92:lib/libDaisy/src/hid/midi.h ****         parse_callback_ = parse_callback;
  93:lib/libDaisy/src/hid/midi.h ****         dsy_dma_clear_cache_for_buffer((uint8_t*)this,
  94:lib/libDaisy/src/hid/midi.h ****                                        sizeof(MidiUartTransport));
  95:lib/libDaisy/src/hid/midi.h ****         uart_.DmaListenStart(
  96:lib/libDaisy/src/hid/midi.h ****             rx_buffer, rx_buffer_size, MidiUartTransport::rxCallback, this);
  97:lib/libDaisy/src/hid/midi.h ****     }
  98:lib/libDaisy/src/hid/midi.h **** 
  99:lib/libDaisy/src/hid/midi.h ****     /** @brief returns whether the UART peripheral is actively listening in the background or not *
 100:lib/libDaisy/src/hid/midi.h ****     inline bool RxActive() { return uart_.IsListening(); }
 101:lib/libDaisy/src/hid/midi.h **** 
 102:lib/libDaisy/src/hid/midi.h ****     /** @brief This is a no-op for UART transport - Rx is via DMA callback with circular buffer */
 103:lib/libDaisy/src/hid/midi.h ****     inline void FlushRx() {}
 104:lib/libDaisy/src/hid/midi.h **** 
 105:lib/libDaisy/src/hid/midi.h ****     /** @brief sends the buffer of bytes out of the UART peripheral */
 106:lib/libDaisy/src/hid/midi.h ****     inline void Tx(uint8_t* buff, size_t size) { uart_.PollTx(buff, size); }
 107:lib/libDaisy/src/hid/midi.h **** 
 108:lib/libDaisy/src/hid/midi.h ****   private:
 109:lib/libDaisy/src/hid/midi.h ****     UartHandler         uart_;
 110:lib/libDaisy/src/hid/midi.h ****     uint8_t*            rx_buffer;
 111:lib/libDaisy/src/hid/midi.h ****     size_t              rx_buffer_size;
 112:lib/libDaisy/src/hid/midi.h ****     void*               parse_context_;
 113:lib/libDaisy/src/hid/midi.h ****     MidiRxParseCallback parse_callback_;
 114:lib/libDaisy/src/hid/midi.h **** 
 115:lib/libDaisy/src/hid/midi.h ****     /** Static callback for Uart MIDI that occurs when
 116:lib/libDaisy/src/hid/midi.h ****          *  new data is available from the peripheral.
 117:lib/libDaisy/src/hid/midi.h ****          *  The new data is transferred from the peripheral to the
 118:lib/libDaisy/src/hid/midi.h ****          *  MIDI instance's byte FIFO that feeds the MIDI parser.
 119:lib/libDaisy/src/hid/midi.h ****          *
 120:lib/libDaisy/src/hid/midi.h ****          *  TODO: Handle UartHandler errors better/at all.
 121:lib/libDaisy/src/hid/midi.h ****          *  (If there is a UART error, there's not really any recovery
 122:lib/libDaisy/src/hid/midi.h ****          *  option at the moment)
 123:lib/libDaisy/src/hid/midi.h ****          */
 124:lib/libDaisy/src/hid/midi.h ****     static void rxCallback(uint8_t*            data,
 125:lib/libDaisy/src/hid/midi.h ****                            size_t              size,
 126:lib/libDaisy/src/hid/midi.h ****                            void*               context,
 127:lib/libDaisy/src/hid/midi.h ****                            UartHandler::Result res)
 128:lib/libDaisy/src/hid/midi.h ****     {
 129:lib/libDaisy/src/hid/midi.h ****         /** Read context as transport type */
 130:lib/libDaisy/src/hid/midi.h ****         MidiUartTransport* transport
 131:lib/libDaisy/src/hid/midi.h ****             = reinterpret_cast<MidiUartTransport*>(context);
 132:lib/libDaisy/src/hid/midi.h ****         if(res == UartHandler::Result::OK)
 133:lib/libDaisy/src/hid/midi.h ****         {
 134:lib/libDaisy/src/hid/midi.h ****             if(transport->parse_callback_)
 135:lib/libDaisy/src/hid/midi.h ****             {
 136:lib/libDaisy/src/hid/midi.h ****                 transport->parse_callback_(
 137:lib/libDaisy/src/hid/midi.h ****                     data, size, transport->parse_context_);
ARM GAS  E:\Users\Preston\Documents\AppData\Local\Temp\ccW6aDBy.s 			page 30


 138:lib/libDaisy/src/hid/midi.h ****             }
 139:lib/libDaisy/src/hid/midi.h ****         }
 140:lib/libDaisy/src/hid/midi.h ****     }
 141:lib/libDaisy/src/hid/midi.h **** };
 142:lib/libDaisy/src/hid/midi.h **** 
 143:lib/libDaisy/src/hid/midi.h **** /**
 144:lib/libDaisy/src/hid/midi.h ****     @brief Simple MIDI Handler \n
 145:lib/libDaisy/src/hid/midi.h ****     Parses bytes from an input into valid MidiEvents. \n
 146:lib/libDaisy/src/hid/midi.h ****     The MidiEvents fill a FIFO queue that the user can pop messages from.
 147:lib/libDaisy/src/hid/midi.h ****     @author shensley
 148:lib/libDaisy/src/hid/midi.h ****     @date March 2020
 149:lib/libDaisy/src/hid/midi.h ****     @ingroup midi
 150:lib/libDaisy/src/hid/midi.h **** */
 151:lib/libDaisy/src/hid/midi.h **** template <typename Transport>
 152:lib/libDaisy/src/hid/midi.h **** class MidiHandler
 153:lib/libDaisy/src/hid/midi.h **** {
 154:lib/libDaisy/src/hid/midi.h ****   public:
 155:lib/libDaisy/src/hid/midi.h ****     MidiHandler() {}
 156:lib/libDaisy/src/hid/midi.h ****     ~MidiHandler() {}
 234              		.loc 10 156 5 is_stmt 1 view -0
 235              		.cfi_startproc
 236              		@ args = 0, pretend = 0, frame = 0
 237              		@ frame_needed = 0, uses_anonymous_args = 0
 238              		@ link register save eliminated.
 239              	.LBB505:
 240              	.LBI505:
 241              		.loc 8 298 7 view .LVU33
 242              	.LBB506:
 243              	.LBI506:
  42:lib/libDaisy/src/util/FIFO.h **** 
 244              		.loc 8 42 5 view .LVU34
  42:lib/libDaisy/src/util/FIFO.h **** 
 245              		.loc 8 42 5 is_stmt 0 view .LVU35
 246              	.LBE506:
 247              	.LBE505:
 248              	.LBB507:
 249              	.LBI507:
 250              		.file 11 "lib/libDaisy/src/hid/midi_parser.h"
   1:lib/libDaisy/src/hid/midi_parser.h **** #pragma once
   2:lib/libDaisy/src/hid/midi_parser.h **** #ifndef DSY_MIDI_PARSER_H
   3:lib/libDaisy/src/hid/midi_parser.h **** #define DSY_MIDI_PARSER_H
   4:lib/libDaisy/src/hid/midi_parser.h **** 
   5:lib/libDaisy/src/hid/midi_parser.h **** #include <stdint.h>
   6:lib/libDaisy/src/hid/midi_parser.h **** #include <stdlib.h>
   7:lib/libDaisy/src/hid/midi_parser.h **** #include "hid/MidiEvent.h"
   8:lib/libDaisy/src/hid/midi_parser.h **** 
   9:lib/libDaisy/src/hid/midi_parser.h **** namespace daisy
  10:lib/libDaisy/src/hid/midi_parser.h **** {
  11:lib/libDaisy/src/hid/midi_parser.h **** /** @brief   Utility class for parsing raw byte streams into MIDI messages
  12:lib/libDaisy/src/hid/midi_parser.h ****  *  @details Implemented as a state machine designed to parse one byte at a time
  13:lib/libDaisy/src/hid/midi_parser.h ****  *  @ingroup midi
  14:lib/libDaisy/src/hid/midi_parser.h ****  */
  15:lib/libDaisy/src/hid/midi_parser.h **** class MidiParser
  16:lib/libDaisy/src/hid/midi_parser.h **** {
  17:lib/libDaisy/src/hid/midi_parser.h ****   public:
  18:lib/libDaisy/src/hid/midi_parser.h ****     MidiParser(){};
  19:lib/libDaisy/src/hid/midi_parser.h ****     ~MidiParser() {}
ARM GAS  E:\Users\Preston\Documents\AppData\Local\Temp\ccW6aDBy.s 			page 31


 251              		.loc 11 19 5 is_stmt 1 view .LVU36
 252              		.loc 11 19 5 is_stmt 0 view .LVU37
 253              	.LBE507:
 254              	.LBB508:
 255              	.LBI508:
  32:lib/libDaisy/src/hid/midi.h **** 
 256              		.loc 10 32 5 is_stmt 1 view .LVU38
  32:lib/libDaisy/src/hid/midi.h **** 
 257              		.loc 10 32 5 is_stmt 0 view .LVU39
 258              	.LBE508:
 259              		.loc 10 156 21 view .LVU40
 260 0000 7047     		bx	lr
 261              		.cfi_endproc
 262              	.LFE2692:
 264              		.weak	_ZN5daisy11MidiHandlerINS_17MidiUartTransportEED1Ev
 265              		.thumb_set _ZN5daisy11MidiHandlerINS_17MidiUartTransportEED1Ev,_ZN5daisy11MidiHandlerINS_17MidiUar
 266 0002 00BF     		.section	.text._ZN5daisy11OledDisplayINS_13SSD130xDriverILj128ELj64ENS_19SSD130xI2CTransportEEEED0
 267              		.align	1
 268              		.p2align 2,,3
 269              		.weak	_ZN5daisy11OledDisplayINS_13SSD130xDriverILj128ELj64ENS_19SSD130xI2CTransportEEEED0Ev
 270              		.syntax unified
 271              		.thumb
 272              		.thumb_func
 273              		.fpu fpv5-d16
 275              	_ZN5daisy11OledDisplayINS_13SSD130xDriverILj128ELj64ENS_19SSD130xI2CTransportEEEED0Ev:
 276              	.LVL12:
 277              	.LFB2684:
  18:lib/libDaisy/src/hid/disp/oled_display.h **** 
 278              		.loc 6 18 13 is_stmt 1 view -0
 279              		.cfi_startproc
 280              		@ args = 0, pretend = 0, frame = 0
 281              		@ frame_needed = 0, uses_anonymous_args = 0
  18:lib/libDaisy/src/hid/disp/oled_display.h **** 
 282              		.loc 6 18 13 is_stmt 0 view .LVU42
 283 0000 10B5     		push	{r4, lr}
 284              		.cfi_def_cfa_offset 8
 285              		.cfi_offset 4, -8
 286              		.cfi_offset 14, -4
  18:lib/libDaisy/src/hid/disp/oled_display.h **** 
 287              		.loc 6 18 13 view .LVU43
 288 0002 0446     		mov	r4, r0
 289              	.LVL13:
 290              	.LBB509:
 291              	.LBI509:
  18:lib/libDaisy/src/hid/disp/oled_display.h **** 
 292              		.loc 6 18 13 is_stmt 1 view .LVU44
 293              	.LBB510:
 294              	.LBI510:
 295              		.loc 9 219 13 view .LVU45
 296              	.LBB511:
 297              	.LBI511:
  23:lib/libDaisy/src/hid/disp/display.h **** 
 298              		.loc 9 23 13 view .LVU46
  23:lib/libDaisy/src/hid/disp/display.h **** 
 299              		.loc 9 23 13 is_stmt 0 view .LVU47
 300              	.LBE511:
 301              	.LBE510:
ARM GAS  E:\Users\Preston\Documents\AppData\Local\Temp\ccW6aDBy.s 			page 32


 302              	.LBE509:
  18:lib/libDaisy/src/hid/disp/oled_display.h **** 
 303              		.loc 6 18 29 view .LVU48
 304 0004 4FF48261 		mov	r1, #1040
 305 0008 FFF7FEFF 		bl	_ZdlPvj
 306              	.LVL14:
  18:lib/libDaisy/src/hid/disp/oled_display.h **** 
 307              		.loc 6 18 29 view .LVU49
 308 000c 2046     		mov	r0, r4
 309 000e 10BD     		pop	{r4, pc}
  18:lib/libDaisy/src/hid/disp/oled_display.h **** 
 310              		.loc 6 18 29 view .LVU50
 311              		.cfi_endproc
 312              	.LFE2684:
 314              		.section	.text._ZN5daisy17MidiUartTransport10rxCallbackEPhjPvNS_11UartHandler6ResultE,"axG",%progb
 315              		.align	1
 316              		.p2align 2,,3
 317              		.weak	_ZN5daisy17MidiUartTransport10rxCallbackEPhjPvNS_11UartHandler6ResultE
 318              		.syntax unified
 319              		.thumb
 320              		.thumb_func
 321              		.fpu fpv5-d16
 323              	_ZN5daisy17MidiUartTransport10rxCallbackEPhjPvNS_11UartHandler6ResultE:
 324              	.LVL15:
 325              	.LFB1625:
 124:lib/libDaisy/src/hid/midi.h ****                            size_t              size,
 326              		.loc 10 124 17 is_stmt 1 view -0
 327              		.cfi_startproc
 328              		@ args = 0, pretend = 0, frame = 0
 329              		@ frame_needed = 0, uses_anonymous_args = 0
 330              		@ link register save eliminated.
 130:lib/libDaisy/src/hid/midi.h ****             = reinterpret_cast<MidiUartTransport*>(context);
 331              		.loc 10 130 9 view .LVU52
 132:lib/libDaisy/src/hid/midi.h ****         {
 332              		.loc 10 132 9 view .LVU53
 333 0000 1BB9     		cbnz	r3, .L11
 334              	.LVL16:
 335              	.LBB514:
 336              	.LBI514:
 124:lib/libDaisy/src/hid/midi.h ****                            size_t              size,
 337              		.loc 10 124 17 view .LVU54
 338              	.LBB515:
 134:lib/libDaisy/src/hid/midi.h ****             {
 339              		.loc 10 134 13 view .LVU55
 134:lib/libDaisy/src/hid/midi.h ****             {
 340              		.loc 10 134 27 is_stmt 0 view .LVU56
 341 0002 1369     		ldr	r3, [r2, #16]
 342              	.LVL17:
 134:lib/libDaisy/src/hid/midi.h ****             {
 343              		.loc 10 134 13 view .LVU57
 344 0004 0BB1     		cbz	r3, .L11
 136:lib/libDaisy/src/hid/midi.h ****                     data, size, transport->parse_context_);
 345              		.loc 10 136 17 is_stmt 1 view .LVU58
 136:lib/libDaisy/src/hid/midi.h ****                     data, size, transport->parse_context_);
 346              		.loc 10 136 43 is_stmt 0 view .LVU59
 347 0006 D268     		ldr	r2, [r2, #12]
 348              	.LVL18:
ARM GAS  E:\Users\Preston\Documents\AppData\Local\Temp\ccW6aDBy.s 			page 33


 136:lib/libDaisy/src/hid/midi.h ****                     data, size, transport->parse_context_);
 349              		.loc 10 136 43 view .LVU60
 350 0008 1847     		bx	r3	@ indirect register sibling call
 351              	.LVL19:
 352              	.L11:
 136:lib/libDaisy/src/hid/midi.h ****                     data, size, transport->parse_context_);
 353              		.loc 10 136 43 view .LVU61
 354              	.LBE515:
 355              	.LBE514:
 140:lib/libDaisy/src/hid/midi.h **** };
 356              		.loc 10 140 5 view .LVU62
 357 000a 7047     		bx	lr
 358              		.cfi_endproc
 359              	.LFE1625:
 361              		.section	.text._ZN5daisy11MidiHandlerINS_17MidiUartTransportEE13ParseCallbackEPhjPv,"axG",%progbit
 362              		.align	1
 363              		.p2align 2,,3
 364              		.weak	_ZN5daisy11MidiHandlerINS_17MidiUartTransportEE13ParseCallbackEPhjPv
 365              		.syntax unified
 366              		.thumb
 367              		.thumb_func
 368              		.fpu fpv5-d16
 370              	_ZN5daisy11MidiHandlerINS_17MidiUartTransportEE13ParseCallbackEPhjPv:
 371              	.LVL20:
 372              	.LFB2671:
 157:lib/libDaisy/src/hid/midi.h **** 
 158:lib/libDaisy/src/hid/midi.h ****     struct Config
 159:lib/libDaisy/src/hid/midi.h ****     {
 160:lib/libDaisy/src/hid/midi.h ****         typename Transport::Config transport_config;
 161:lib/libDaisy/src/hid/midi.h ****     };
 162:lib/libDaisy/src/hid/midi.h **** 
 163:lib/libDaisy/src/hid/midi.h ****     /** Initializes the MidiHandler
 164:lib/libDaisy/src/hid/midi.h ****      *  \param config Configuration structure used to define specifics to the MIDI Handler.
 165:lib/libDaisy/src/hid/midi.h ****      */
 166:lib/libDaisy/src/hid/midi.h ****     void Init(Config config)
 167:lib/libDaisy/src/hid/midi.h ****     {
 168:lib/libDaisy/src/hid/midi.h ****         config_ = config;
 169:lib/libDaisy/src/hid/midi.h ****         transport_.Init(config_.transport_config);
 170:lib/libDaisy/src/hid/midi.h ****         parser_.Init();
 171:lib/libDaisy/src/hid/midi.h ****     }
 172:lib/libDaisy/src/hid/midi.h **** 
 173:lib/libDaisy/src/hid/midi.h ****     /** Starts listening on the selected input mode(s).
 174:lib/libDaisy/src/hid/midi.h ****      * MidiEvent Queue will begin to fill, and can be checked with HasEvents() */
 175:lib/libDaisy/src/hid/midi.h ****     void StartReceive()
 176:lib/libDaisy/src/hid/midi.h ****     {
 177:lib/libDaisy/src/hid/midi.h ****         transport_.StartRx(MidiHandler::ParseCallback, this);
 178:lib/libDaisy/src/hid/midi.h ****     }
 179:lib/libDaisy/src/hid/midi.h **** 
 180:lib/libDaisy/src/hid/midi.h ****     /** Start listening */
 181:lib/libDaisy/src/hid/midi.h ****     void Listen()
 182:lib/libDaisy/src/hid/midi.h ****     {
 183:lib/libDaisy/src/hid/midi.h ****         // In case of UART Error, (particularly
 184:lib/libDaisy/src/hid/midi.h ****         //  overrun error), UART disables itself.
 185:lib/libDaisy/src/hid/midi.h ****         // Flush the buff, and restart.
 186:lib/libDaisy/src/hid/midi.h ****         if(!transport_.RxActive())
 187:lib/libDaisy/src/hid/midi.h ****         {
 188:lib/libDaisy/src/hid/midi.h ****             parser_.Reset();
ARM GAS  E:\Users\Preston\Documents\AppData\Local\Temp\ccW6aDBy.s 			page 34


 189:lib/libDaisy/src/hid/midi.h ****             transport_.FlushRx();
 190:lib/libDaisy/src/hid/midi.h ****             StartReceive();
 191:lib/libDaisy/src/hid/midi.h ****         }
 192:lib/libDaisy/src/hid/midi.h ****     }
 193:lib/libDaisy/src/hid/midi.h **** 
 194:lib/libDaisy/src/hid/midi.h ****     /** Checks if there are unhandled messages in the queue
 195:lib/libDaisy/src/hid/midi.h ****     \return True if there are events to be handled, else false.
 196:lib/libDaisy/src/hid/midi.h ****      */
 197:lib/libDaisy/src/hid/midi.h ****     bool HasEvents() const { return event_q_.GetNumElements() > 0; }
 198:lib/libDaisy/src/hid/midi.h **** 
 199:lib/libDaisy/src/hid/midi.h **** 
 200:lib/libDaisy/src/hid/midi.h ****     /** Pops the oldest unhandled MidiEvent from the internal queue
 201:lib/libDaisy/src/hid/midi.h ****     \return The event to be handled
 202:lib/libDaisy/src/hid/midi.h ****      */
 203:lib/libDaisy/src/hid/midi.h ****     MidiEvent PopEvent() { return event_q_.PopFront(); }
 204:lib/libDaisy/src/hid/midi.h **** 
 205:lib/libDaisy/src/hid/midi.h ****     /** SendMessage
 206:lib/libDaisy/src/hid/midi.h ****     Send raw bytes as message
 207:lib/libDaisy/src/hid/midi.h ****     */
 208:lib/libDaisy/src/hid/midi.h ****     void SendMessage(uint8_t* bytes, size_t size)
 209:lib/libDaisy/src/hid/midi.h ****     {
 210:lib/libDaisy/src/hid/midi.h ****         transport_.Tx(bytes, size);
 211:lib/libDaisy/src/hid/midi.h ****     }
 212:lib/libDaisy/src/hid/midi.h **** 
 213:lib/libDaisy/src/hid/midi.h ****     /** Feed in bytes to parser state machine from an external source.
 214:lib/libDaisy/src/hid/midi.h ****         Populates internal FIFO queue with MIDI Messages.
 215:lib/libDaisy/src/hid/midi.h **** 
 216:lib/libDaisy/src/hid/midi.h ****         \note  Normally application code won't need to use this method directly.
 217:lib/libDaisy/src/hid/midi.h ****         \param byte MIDI byte to be parsed
 218:lib/libDaisy/src/hid/midi.h ****     */
 219:lib/libDaisy/src/hid/midi.h ****     void Parse(uint8_t byte)
 220:lib/libDaisy/src/hid/midi.h ****     {
 221:lib/libDaisy/src/hid/midi.h ****         MidiEvent event;
 222:lib/libDaisy/src/hid/midi.h ****         if(parser_.Parse(byte, &event))
 223:lib/libDaisy/src/hid/midi.h ****         {
 224:lib/libDaisy/src/hid/midi.h ****             event_q_.PushBack(event);
 225:lib/libDaisy/src/hid/midi.h ****         }
 226:lib/libDaisy/src/hid/midi.h ****     }
 227:lib/libDaisy/src/hid/midi.h **** 
 228:lib/libDaisy/src/hid/midi.h ****   private:
 229:lib/libDaisy/src/hid/midi.h ****     Config               config_;
 230:lib/libDaisy/src/hid/midi.h ****     Transport            transport_;
 231:lib/libDaisy/src/hid/midi.h ****     MidiParser           parser_;
 232:lib/libDaisy/src/hid/midi.h ****     FIFO<MidiEvent, 256> event_q_;
 233:lib/libDaisy/src/hid/midi.h **** 
 234:lib/libDaisy/src/hid/midi.h ****     static void ParseCallback(uint8_t* data, size_t size, void* context)
 373              		.loc 10 234 17 is_stmt 1 view -0
 374              		.cfi_startproc
 375              		@ args = 0, pretend = 0, frame = 144
 376              		@ frame_needed = 0, uses_anonymous_args = 0
 377              	.LBB525:
 235:lib/libDaisy/src/hid/midi.h ****     {
 236:lib/libDaisy/src/hid/midi.h ****         MidiHandler* handler = reinterpret_cast<MidiHandler*>(context);
 237:lib/libDaisy/src/hid/midi.h ****         for(size_t i = 0; i < size; i++)
 378              		.loc 10 237 29 view .LVU64
 379 0000 B9B3     		cbz	r1, .L26
 380 0002 0144     		add	r1, r1, r0
ARM GAS  E:\Users\Preston\Documents\AppData\Local\Temp\ccW6aDBy.s 			page 35


 381              	.LVL21:
 382              		.loc 10 237 29 is_stmt 0 view .LVU65
 383              	.LBE525:
 234:lib/libDaisy/src/hid/midi.h ****     {
 384              		.loc 10 234 17 view .LVU66
 385 0004 F0B5     		push	{r4, r5, r6, r7, lr}
 386              		.cfi_def_cfa_offset 20
 387              		.cfi_offset 4, -20
 388              		.cfi_offset 5, -16
 389              		.cfi_offset 6, -12
 390              		.cfi_offset 7, -8
 391              		.cfi_offset 14, -4
 392 0006 1546     		mov	r5, r2
 393 0008 A5B0     		sub	sp, sp, #148
 394              		.cfi_def_cfa_offset 168
 395              	.LBB544:
 396              	.LBB526:
 397              	.LBB527:
 222:lib/libDaisy/src/hid/midi.h ****         {
 398              		.loc 10 222 25 view .LVU67
 399 000a 02F12407 		add	r7, r2, #36
 400 000e 441E     		subs	r4, r0, #1
 401 0010 4E1E     		subs	r6, r1, #1
 402 0012 01E0     		b	.L24
 403              	.LVL22:
 404              	.L19:
 222:lib/libDaisy/src/hid/midi.h ****         {
 405              		.loc 10 222 25 view .LVU68
 406              	.LBE527:
 407              	.LBE526:
 408              		.loc 10 237 9 is_stmt 1 view .LVU69
 409              		.loc 10 237 29 view .LVU70
 410 0014 A642     		cmp	r6, r4
 411 0016 2AD0     		beq	.L29
 412              	.LVL23:
 413              	.L24:
 414              	.LBB543:
 415              	.LBI526:
 219:lib/libDaisy/src/hid/midi.h ****     {
 416              		.loc 10 219 10 discriminator 2 view .LVU71
 417              	.LBB542:
 222:lib/libDaisy/src/hid/midi.h ****         {
 418              		.loc 10 222 25 is_stmt 0 discriminator 2 view .LVU72
 419 0018 14F8011F 		ldrb	r1, [r4, #1]!	@ zero_extendqisi2
 420              	.LVL24:
 222:lib/libDaisy/src/hid/midi.h ****         {
 421              		.loc 10 222 25 discriminator 2 view .LVU73
 422 001c 6A46     		mov	r2, sp
 423 001e 3846     		mov	r0, r7
 424 0020 FFF7FEFF 		bl	_ZN5daisy10MidiParser5ParseEhPNS_9MidiEventE
 425              	.LVL25:
 222:lib/libDaisy/src/hid/midi.h ****         {
 426              		.loc 10 222 9 discriminator 2 view .LVU74
 427 0024 0028     		cmp	r0, #0
 428 0026 F5D0     		beq	.L19
 429              	.LVL26:
 430              	.LBB528:
ARM GAS  E:\Users\Preston\Documents\AppData\Local\Temp\ccW6aDBy.s 			page 36


 431              	.LBI528:
  49:lib/libDaisy/src/util/FIFO.h ****     {
 432              		.loc 8 49 10 is_stmt 1 view .LVU75
 433              	.LBB529:
 434              	.LBB530:
 435              	.LBI530:
 168:lib/libDaisy/src/util/FIFO.h **** 
 436              		.loc 8 168 10 view .LVU76
 437              	.LBB531:
 438              	.LBB532:
 439              	.LBI532:
 171:lib/libDaisy/src/util/FIFO.h ****     {
 440              		.loc 8 171 12 view .LVU77
 441              	.LBB533:
 175:lib/libDaisy/src/util/FIFO.h ****         return size_t(numElements);
 442              		.loc 8 175 28 is_stmt 0 view .LVU78
 443 0028 D5F8C4C0 		ldr	ip, [r5, #196]
 444              	.LBE533:
 445              	.LBE532:
 446              	.LBE531:
 447              	.LBE530:
  53:lib/libDaisy/src/util/FIFO.h ****             if(bufferIn_ >= bufferSize_)
 448              		.loc 8 53 13 view .LVU79
 449 002c 9022     		movs	r2, #144
 450 002e 6946     		mov	r1, sp
 451              	.LBB540:
 452              	.LBB538:
 453              	.LBB536:
 454              	.LBB534:
 173:lib/libDaisy/src/util/FIFO.h ****         if(numElements < 0)
 455              		.loc 8 173 41 view .LVU80
 456 0030 D5E93203 		ldrd	r0, r3, [r5, #200]
 457              	.LVL27:
 174:lib/libDaisy/src/util/FIFO.h ****             numElements += bufferSize_;
 458              		.loc 8 174 9 view .LVU81
 459 0034 C31A     		subs	r3, r0, r3
 460              	.LVL28:
 174:lib/libDaisy/src/util/FIFO.h ****             numElements += bufferSize_;
 461              		.loc 8 174 9 view .LVU82
 462              	.LBE534:
 463              	.LBE536:
 464              	.LBE538:
 465              	.LBE540:
  53:lib/libDaisy/src/util/FIFO.h ****             if(bufferIn_ >= bufferSize_)
 466              		.loc 8 53 13 view .LVU83
 467 0036 00F1010E 		add	lr, r0, #1
 468 003a 00EBC000 		add	r0, r0, r0, lsl #3
 469              	.LBB541:
 470              	.LBB539:
 471              	.LBB537:
 472              	.LBB535:
 175:lib/libDaisy/src/util/FIFO.h ****         return size_t(numElements);
 473              		.loc 8 175 25 view .LVU84
 474 003e 48BF     		it	mi
 475 0040 6344     		addmi	r3, r3, ip
 476              	.LVL29:
 175:lib/libDaisy/src/util/FIFO.h ****         return size_t(numElements);
ARM GAS  E:\Users\Preston\Documents\AppData\Local\Temp\ccW6aDBy.s 			page 37


 477              		.loc 8 175 25 view .LVU85
 478              	.LBE535:
 479              	.LBE537:
 168:lib/libDaisy/src/util/FIFO.h **** 
 480              		.loc 8 168 66 view .LVU86
 481 0042 0CF1FF3C 		add	ip, ip, #-1
 482              	.LBE539:
 483              	.LBE541:
  51:lib/libDaisy/src/util/FIFO.h ****         {
 484              		.loc 8 51 9 view .LVU87
 485 0046 9C45     		cmp	ip, r3
 486 0048 E4D0     		beq	.L19
  53:lib/libDaisy/src/util/FIFO.h ****             if(bufferIn_ >= bufferSize_)
 487              		.loc 8 53 13 view .LVU88
 488 004a D5F8C030 		ldr	r3, [r5, #192]
 489 004e C5F8C8E0 		str	lr, [r5, #200]
 490 0052 03EB0010 		add	r0, r3, r0, lsl #4
 491 0056 FFF7FEFF 		bl	memcpy
 492              	.LVL30:
  54:lib/libDaisy/src/util/FIFO.h ****                 bufferIn_ -= bufferSize_;
 493              		.loc 8 54 29 view .LVU89
 494 005a D5E93123 		ldrd	r2, r3, [r5, #196]
  54:lib/libDaisy/src/util/FIFO.h ****                 bufferIn_ -= bufferSize_;
 495              		.loc 8 54 13 view .LVU90
 496 005e 9342     		cmp	r3, r2
  55:lib/libDaisy/src/util/FIFO.h ****             return true;
 497              		.loc 8 55 27 view .LVU91
 498 0060 A3EB0203 		sub	r3, r3, r2
 499 0064 28BF     		it	cs
 500 0066 C5F8C830 		strcs	r3, [r5, #200]
 501              	.LVL31:
  55:lib/libDaisy/src/util/FIFO.h ****             return true;
 502              		.loc 8 55 27 view .LVU92
 503              	.LBE529:
 504              	.LBE528:
 505              	.LBE542:
 506              	.LBE543:
 507              		.loc 10 237 9 is_stmt 1 view .LVU93
 508              		.loc 10 237 29 view .LVU94
 509 006a A642     		cmp	r6, r4
 510 006c D4D1     		bne	.L24
 511              	.LVL32:
 512              	.L29:
 513              		.loc 10 237 29 is_stmt 0 view .LVU95
 514              	.LBE544:
 238:lib/libDaisy/src/hid/midi.h ****         {
 239:lib/libDaisy/src/hid/midi.h ****             handler->Parse(data[i]);
 240:lib/libDaisy/src/hid/midi.h ****         }
 241:lib/libDaisy/src/hid/midi.h ****     }
 515              		.loc 10 241 5 view .LVU96
 516 006e 25B0     		add	sp, sp, #148
 517              		.cfi_def_cfa_offset 20
 518              		@ sp needed
 519 0070 F0BD     		pop	{r4, r5, r6, r7, pc}
 520              	.LVL33:
 521              	.L26:
 522              		.cfi_def_cfa_offset 0
ARM GAS  E:\Users\Preston\Documents\AppData\Local\Temp\ccW6aDBy.s 			page 38


 523              		.cfi_restore 4
 524              		.cfi_restore 5
 525              		.cfi_restore 6
 526              		.cfi_restore 7
 527              		.cfi_restore 14
 528              		.loc 10 241 5 view .LVU97
 529 0072 7047     		bx	lr
 530              		.cfi_endproc
 531              	.LFE2671:
 533              		.section	.text._ZN5daisy25OneBitGraphicsDisplayImplINS_11OledDisplayINS_13SSD130xDriverILj128ELj64
 534              		.align	1
 535              		.p2align 2,,3
 536              		.weak	_ZN5daisy25OneBitGraphicsDisplayImplINS_11OledDisplayINS_13SSD130xDriverILj128ELj64ENS_19SSD
 537              		.syntax unified
 538              		.thumb
 539              		.thumb_func
 540              		.fpu fpv5-d16
 542              	_ZN5daisy25OneBitGraphicsDisplayImplINS_11OledDisplayINS_13SSD130xDriverILj128ELj64ENS_19SSD130xI2C
 543              	.LVL34:
 544              	.LFB2669:
 220:lib/libDaisy/src/hid/disp/display.h **** 
 221:lib/libDaisy/src/hid/disp/display.h ****     void DrawLine(uint_fast8_t x1,
 222:lib/libDaisy/src/hid/disp/display.h ****                   uint_fast8_t y1,
 223:lib/libDaisy/src/hid/disp/display.h ****                   uint_fast8_t x2,
 224:lib/libDaisy/src/hid/disp/display.h ****                   uint_fast8_t y2,
 225:lib/libDaisy/src/hid/disp/display.h ****                   bool         on) override
 226:lib/libDaisy/src/hid/disp/display.h ****     {
 227:lib/libDaisy/src/hid/disp/display.h ****         int_fast16_t deltaX = abs((int_fast16_t)x2 - (int_fast16_t)x1);
 228:lib/libDaisy/src/hid/disp/display.h ****         int_fast16_t deltaY = abs((int_fast16_t)y2 - (int_fast16_t)y1);
 229:lib/libDaisy/src/hid/disp/display.h ****         int_fast16_t signX  = ((x1 < x2) ? 1 : -1);
 230:lib/libDaisy/src/hid/disp/display.h ****         int_fast16_t signY  = ((y1 < y2) ? 1 : -1);
 231:lib/libDaisy/src/hid/disp/display.h ****         int_fast16_t error  = deltaX - deltaY;
 232:lib/libDaisy/src/hid/disp/display.h ****         int_fast16_t error2;
 233:lib/libDaisy/src/hid/disp/display.h **** 
 234:lib/libDaisy/src/hid/disp/display.h ****         // If we write "ChildType::DrawPixel(x2, y2, on);", we end up with
 235:lib/libDaisy/src/hid/disp/display.h ****         // all sorts of weird compiler errors when the Child class is a template
 236:lib/libDaisy/src/hid/disp/display.h ****         // class. The only way around this is to use this very verbose syntax:
 237:lib/libDaisy/src/hid/disp/display.h ****         ((ChildType*)(this))->ChildType::DrawPixel(x2, y2, on);
 238:lib/libDaisy/src/hid/disp/display.h **** 
 239:lib/libDaisy/src/hid/disp/display.h ****         while((x1 != x2) || (y1 != y2))
 240:lib/libDaisy/src/hid/disp/display.h ****         {
 241:lib/libDaisy/src/hid/disp/display.h ****             ((ChildType*)(this))->ChildType::DrawPixel(x1, y1, on);
 242:lib/libDaisy/src/hid/disp/display.h ****             error2 = error * 2;
 243:lib/libDaisy/src/hid/disp/display.h ****             if(error2 > -deltaY)
 244:lib/libDaisy/src/hid/disp/display.h ****             {
 245:lib/libDaisy/src/hid/disp/display.h ****                 error -= deltaY;
 246:lib/libDaisy/src/hid/disp/display.h ****                 x1 += signX;
 247:lib/libDaisy/src/hid/disp/display.h ****             }
 248:lib/libDaisy/src/hid/disp/display.h **** 
 249:lib/libDaisy/src/hid/disp/display.h ****             if(error2 < deltaX)
 250:lib/libDaisy/src/hid/disp/display.h ****             {
 251:lib/libDaisy/src/hid/disp/display.h ****                 error += deltaX;
 252:lib/libDaisy/src/hid/disp/display.h ****                 y1 += signY;
 253:lib/libDaisy/src/hid/disp/display.h ****             }
 254:lib/libDaisy/src/hid/disp/display.h ****         }
 255:lib/libDaisy/src/hid/disp/display.h ****     }
 256:lib/libDaisy/src/hid/disp/display.h **** 
ARM GAS  E:\Users\Preston\Documents\AppData\Local\Temp\ccW6aDBy.s 			page 39


 257:lib/libDaisy/src/hid/disp/display.h ****     void DrawRect(uint_fast8_t x1,
 258:lib/libDaisy/src/hid/disp/display.h ****                   uint_fast8_t y1,
 259:lib/libDaisy/src/hid/disp/display.h ****                   uint_fast8_t x2,
 260:lib/libDaisy/src/hid/disp/display.h ****                   uint_fast8_t y2,
 261:lib/libDaisy/src/hid/disp/display.h ****                   bool         on,
 262:lib/libDaisy/src/hid/disp/display.h ****                   bool         fill = false) override
 263:lib/libDaisy/src/hid/disp/display.h ****     {
 264:lib/libDaisy/src/hid/disp/display.h ****         if(fill)
 265:lib/libDaisy/src/hid/disp/display.h ****         {
 266:lib/libDaisy/src/hid/disp/display.h ****             for(uint_fast8_t x = x1; x <= x2; x++)
 267:lib/libDaisy/src/hid/disp/display.h ****             {
 268:lib/libDaisy/src/hid/disp/display.h ****                 for(uint_fast8_t y = y1; y <= y2; y++)
 269:lib/libDaisy/src/hid/disp/display.h ****                 {
 270:lib/libDaisy/src/hid/disp/display.h ****                     ((ChildType*)(this))->ChildType::DrawPixel(x, y, on);
 271:lib/libDaisy/src/hid/disp/display.h ****                 }
 272:lib/libDaisy/src/hid/disp/display.h ****             }
 273:lib/libDaisy/src/hid/disp/display.h ****         }
 274:lib/libDaisy/src/hid/disp/display.h ****         else
 275:lib/libDaisy/src/hid/disp/display.h ****         {
 276:lib/libDaisy/src/hid/disp/display.h ****             ((ChildType*)(this))->ChildType::DrawLine(x1, y1, x2, y1, on);
 277:lib/libDaisy/src/hid/disp/display.h ****             ((ChildType*)(this))->ChildType::DrawLine(x2, y1, x2, y2, on);
 278:lib/libDaisy/src/hid/disp/display.h ****             ((ChildType*)(this))->ChildType::DrawLine(x2, y2, x1, y2, on);
 279:lib/libDaisy/src/hid/disp/display.h ****             ((ChildType*)(this))->ChildType::DrawLine(x1, y2, x1, y1, on);
 280:lib/libDaisy/src/hid/disp/display.h ****         }
 281:lib/libDaisy/src/hid/disp/display.h ****     }
 282:lib/libDaisy/src/hid/disp/display.h **** 
 283:lib/libDaisy/src/hid/disp/display.h ****     void DrawArc(uint_fast8_t x,
 284:lib/libDaisy/src/hid/disp/display.h ****                  uint_fast8_t y,
 285:lib/libDaisy/src/hid/disp/display.h ****                  uint_fast8_t radius,
 286:lib/libDaisy/src/hid/disp/display.h ****                  int_fast16_t start_angle,
 287:lib/libDaisy/src/hid/disp/display.h ****                  int_fast16_t sweep,
 288:lib/libDaisy/src/hid/disp/display.h ****                  bool         on) override
 289:lib/libDaisy/src/hid/disp/display.h ****     {
 290:lib/libDaisy/src/hid/disp/display.h ****         // Values to calculate the circle
 291:lib/libDaisy/src/hid/disp/display.h ****         int_fast16_t t_x, t_y, err, e2;
 292:lib/libDaisy/src/hid/disp/display.h **** 
 293:lib/libDaisy/src/hid/disp/display.h ****         // Temporary values to speed up comparisons
 294:lib/libDaisy/src/hid/disp/display.h ****         float t_sxy, t_syx, t_sxny, t_synx;
 295:lib/libDaisy/src/hid/disp/display.h ****         float t_exy, t_eyx, t_exny, t_eynx;
 296:lib/libDaisy/src/hid/disp/display.h **** 
 297:lib/libDaisy/src/hid/disp/display.h ****         float start_angle_rad, end_angle_rad;
 298:lib/libDaisy/src/hid/disp/display.h ****         float start_x, start_y, end_x, end_y;
 299:lib/libDaisy/src/hid/disp/display.h **** 
 300:lib/libDaisy/src/hid/disp/display.h ****         bool d1, d2, d3, d4;
 301:lib/libDaisy/src/hid/disp/display.h **** 
 302:lib/libDaisy/src/hid/disp/display.h ****         d1 = d2 = d3 = d4 = true;
 303:lib/libDaisy/src/hid/disp/display.h **** 
 304:lib/libDaisy/src/hid/disp/display.h ****         bool circle = false;
 305:lib/libDaisy/src/hid/disp/display.h **** 
 306:lib/libDaisy/src/hid/disp/display.h ****         if(sweep < 0)
 307:lib/libDaisy/src/hid/disp/display.h ****         {
 308:lib/libDaisy/src/hid/disp/display.h ****             start_angle += sweep;
 309:lib/libDaisy/src/hid/disp/display.h ****             sweep = -sweep;
 310:lib/libDaisy/src/hid/disp/display.h ****         }
 311:lib/libDaisy/src/hid/disp/display.h **** 
 312:lib/libDaisy/src/hid/disp/display.h ****         start_angle_rad = deg2rad(start_angle);
 313:lib/libDaisy/src/hid/disp/display.h ****         end_angle_rad   = deg2rad(start_angle + sweep);
ARM GAS  E:\Users\Preston\Documents\AppData\Local\Temp\ccW6aDBy.s 			page 40


 314:lib/libDaisy/src/hid/disp/display.h **** 
 315:lib/libDaisy/src/hid/disp/display.h ****         start_x = cos(start_angle_rad) * radius;
 316:lib/libDaisy/src/hid/disp/display.h ****         start_y = -sin(start_angle_rad) * radius;
 317:lib/libDaisy/src/hid/disp/display.h ****         end_x   = cos(end_angle_rad) * radius;
 318:lib/libDaisy/src/hid/disp/display.h ****         end_y   = -sin(end_angle_rad) * radius;
 319:lib/libDaisy/src/hid/disp/display.h **** 
 320:lib/libDaisy/src/hid/disp/display.h ****         // Check if start and endpoint are very near
 321:lib/libDaisy/src/hid/disp/display.h ****         if((end_x - start_x) * (end_x - start_x)
 322:lib/libDaisy/src/hid/disp/display.h ****                + (end_y - start_y) * (end_y - start_y)
 323:lib/libDaisy/src/hid/disp/display.h ****            < 2.0f)
 324:lib/libDaisy/src/hid/disp/display.h ****         {
 325:lib/libDaisy/src/hid/disp/display.h ****             if(sweep > 180)
 326:lib/libDaisy/src/hid/disp/display.h ****                 circle = true;
 327:lib/libDaisy/src/hid/disp/display.h ****             else
 328:lib/libDaisy/src/hid/disp/display.h ****                 // Nothing to draw
 329:lib/libDaisy/src/hid/disp/display.h ****                 return;
 330:lib/libDaisy/src/hid/disp/display.h ****         }
 331:lib/libDaisy/src/hid/disp/display.h **** 
 332:lib/libDaisy/src/hid/disp/display.h ****         t_x = -radius;
 333:lib/libDaisy/src/hid/disp/display.h ****         t_y = 0;
 334:lib/libDaisy/src/hid/disp/display.h ****         err = 2 - 2 * radius;
 335:lib/libDaisy/src/hid/disp/display.h **** 
 336:lib/libDaisy/src/hid/disp/display.h ****         do
 337:lib/libDaisy/src/hid/disp/display.h ****         {
 338:lib/libDaisy/src/hid/disp/display.h ****             if(!circle)
 339:lib/libDaisy/src/hid/disp/display.h ****             {
 340:lib/libDaisy/src/hid/disp/display.h ****                 t_sxy  = start_x * t_y;
 341:lib/libDaisy/src/hid/disp/display.h ****                 t_syx  = start_y * t_x;
 342:lib/libDaisy/src/hid/disp/display.h ****                 t_sxny = start_x * -t_y;
 343:lib/libDaisy/src/hid/disp/display.h ****                 t_synx = start_y * -t_x;
 344:lib/libDaisy/src/hid/disp/display.h ****                 t_exy  = end_x * t_y;
 345:lib/libDaisy/src/hid/disp/display.h ****                 t_eyx  = end_y * t_x;
 346:lib/libDaisy/src/hid/disp/display.h ****                 t_exny = end_x * -t_y;
 347:lib/libDaisy/src/hid/disp/display.h ****                 t_eynx = end_y * -t_x;
 348:lib/libDaisy/src/hid/disp/display.h **** 
 349:lib/libDaisy/src/hid/disp/display.h ****                 if(sweep > 180)
 350:lib/libDaisy/src/hid/disp/display.h ****                 {
 351:lib/libDaisy/src/hid/disp/display.h ****                     d1 = (t_sxy - t_synx < 0 || t_exy - t_eynx > 0);
 352:lib/libDaisy/src/hid/disp/display.h ****                     d2 = (t_sxy - t_syx < 0 || t_exy - t_eyx > 0);
 353:lib/libDaisy/src/hid/disp/display.h ****                     d3 = (t_sxny - t_syx < 0 || t_exny - t_eyx > 0);
 354:lib/libDaisy/src/hid/disp/display.h ****                     d4 = (t_sxny - t_synx < 0 || t_exny - t_eynx > 0);
 355:lib/libDaisy/src/hid/disp/display.h ****                 }
 356:lib/libDaisy/src/hid/disp/display.h ****                 else
 357:lib/libDaisy/src/hid/disp/display.h ****                 {
 358:lib/libDaisy/src/hid/disp/display.h ****                     d1 = (t_sxy - t_synx < 0 && t_exy - t_eynx > 0);
 359:lib/libDaisy/src/hid/disp/display.h ****                     d2 = (t_sxy - t_syx < 0 && t_exy - t_eyx > 0);
 360:lib/libDaisy/src/hid/disp/display.h ****                     d3 = (t_sxny - t_syx < 0 && t_exny - t_eyx > 0);
 361:lib/libDaisy/src/hid/disp/display.h ****                     d4 = (t_sxny - t_synx < 0 && t_exny - t_eynx > 0);
 362:lib/libDaisy/src/hid/disp/display.h ****                 }
 363:lib/libDaisy/src/hid/disp/display.h ****             }
 364:lib/libDaisy/src/hid/disp/display.h **** 
 365:lib/libDaisy/src/hid/disp/display.h ****             if(d1)
 366:lib/libDaisy/src/hid/disp/display.h ****                 ((ChildType*)(this))
 367:lib/libDaisy/src/hid/disp/display.h ****                     ->ChildType::DrawPixel(x - t_x, y + t_y, on);
 368:lib/libDaisy/src/hid/disp/display.h ****             if(d2)
 369:lib/libDaisy/src/hid/disp/display.h ****                 ((ChildType*)(this))
 370:lib/libDaisy/src/hid/disp/display.h ****                     ->ChildType::DrawPixel(x + t_x, y + t_y, on);
ARM GAS  E:\Users\Preston\Documents\AppData\Local\Temp\ccW6aDBy.s 			page 41


 371:lib/libDaisy/src/hid/disp/display.h ****             if(d3)
 372:lib/libDaisy/src/hid/disp/display.h ****                 ((ChildType*)(this))
 373:lib/libDaisy/src/hid/disp/display.h ****                     ->ChildType::DrawPixel(x + t_x, y - t_y, on);
 374:lib/libDaisy/src/hid/disp/display.h ****             if(d4)
 375:lib/libDaisy/src/hid/disp/display.h ****                 ((ChildType*)(this))
 376:lib/libDaisy/src/hid/disp/display.h ****                     ->ChildType::DrawPixel(x - t_x, y - t_y, on);
 377:lib/libDaisy/src/hid/disp/display.h **** 
 378:lib/libDaisy/src/hid/disp/display.h ****             e2 = err;
 379:lib/libDaisy/src/hid/disp/display.h ****             if(e2 <= t_y)
 380:lib/libDaisy/src/hid/disp/display.h ****             {
 381:lib/libDaisy/src/hid/disp/display.h ****                 t_y++;
 382:lib/libDaisy/src/hid/disp/display.h ****                 err = err + (t_y * 2 + 1);
 383:lib/libDaisy/src/hid/disp/display.h ****                 if(-t_x == t_y && e2 <= t_x)
 384:lib/libDaisy/src/hid/disp/display.h ****                 {
 385:lib/libDaisy/src/hid/disp/display.h ****                     e2 = 0;
 386:lib/libDaisy/src/hid/disp/display.h ****                 }
 387:lib/libDaisy/src/hid/disp/display.h ****             }
 388:lib/libDaisy/src/hid/disp/display.h ****             if(e2 > t_x)
 389:lib/libDaisy/src/hid/disp/display.h ****             {
 390:lib/libDaisy/src/hid/disp/display.h ****                 t_x++;
 391:lib/libDaisy/src/hid/disp/display.h ****                 err = err + (t_x * 2 + 1);
 392:lib/libDaisy/src/hid/disp/display.h ****             }
 393:lib/libDaisy/src/hid/disp/display.h ****         } while(t_x <= 0);
 394:lib/libDaisy/src/hid/disp/display.h ****     }
 395:lib/libDaisy/src/hid/disp/display.h **** 
 396:lib/libDaisy/src/hid/disp/display.h ****     char WriteChar(char ch, FontDef font, bool on) override
 545              		.loc 9 396 10 is_stmt 1 view -0
 546              		.cfi_startproc
 547              		@ args = 4, pretend = 0, frame = 16
 548              		@ frame_needed = 0, uses_anonymous_args = 0
 549              		.loc 9 396 10 is_stmt 0 view .LVU99
 550 0000 2DE9F04F 		push	{r4, r5, r6, r7, r8, r9, r10, fp, lr}
 551              		.cfi_def_cfa_offset 36
 552              		.cfi_offset 4, -36
 553              		.cfi_offset 5, -32
 554              		.cfi_offset 6, -28
 555              		.cfi_offset 7, -24
 556              		.cfi_offset 8, -20
 557              		.cfi_offset 9, -16
 558              		.cfi_offset 10, -12
 559              		.cfi_offset 11, -8
 560              		.cfi_offset 14, -4
 561 0004 85B0     		sub	sp, sp, #20
 562              		.cfi_def_cfa_offset 56
 563              	.LVL35:
 397:lib/libDaisy/src/hid/disp/display.h ****     {
 398:lib/libDaisy/src/hid/disp/display.h ****         uint32_t i, b, j;
 399:lib/libDaisy/src/hid/disp/display.h **** 
 400:lib/libDaisy/src/hid/disp/display.h ****         // Check if character is valid
 401:lib/libDaisy/src/hid/disp/display.h ****         if(ch < 32 || ch > 126)
 564              		.loc 9 401 20 view .LVU100
 565 0006 A1F12005 		sub	r5, r1, #32
 396:lib/libDaisy/src/hid/disp/display.h ****     {
 566              		.loc 9 396 10 view .LVU101
 567 000a 04AC     		add	r4, sp, #16
 568 000c 9DF83870 		ldrb	r7, [sp, #56]	@ zero_extendqisi2
 569 0010 0091     		str	r1, [sp]
ARM GAS  E:\Users\Preston\Documents\AppData\Local\Temp\ccW6aDBy.s 			page 42


 570 0012 04E90C00 		stmdb	r4, {r2, r3}
 571              	.LVL36:
 572              		.loc 9 401 9 view .LVU102
 573 0016 EBB2     		uxtb	r3, r5
 574 0018 5E2B     		cmp	r3, #94
 575 001a 00F29580 		bhi	.L34
 402:lib/libDaisy/src/hid/disp/display.h ****             return 0;
 403:lib/libDaisy/src/hid/disp/display.h **** 
 404:lib/libDaisy/src/hid/disp/display.h ****         // Check remaining space on current line
 405:lib/libDaisy/src/hid/disp/display.h ****         if(Width() < (currentX_ + font.FontWidth)
 576              		.loc 9 405 17 view .LVU103
 577 001e 0368     		ldr	r3, [r0]
 578 0020 8046     		mov	r8, r0
 579 0022 5D4A     		ldr	r2, .L69
 580 0024 DB68     		ldr	r3, [r3, #12]
 581 0026 9DF80840 		ldrb	r4, [sp, #8]	@ zero_extendqisi2
 582 002a 9342     		cmp	r3, r2
 583 002c 9DF80960 		ldrb	r6, [sp, #9]	@ zero_extendqisi2
 584 0030 40F09480 		bne	.L61
 585 0034 8020     		movs	r0, #128
 586              	.LVL37:
 587              	.L33:
 588              		.loc 9 405 23 view .LVU104
 589 0036 B8F80430 		ldrh	r3, [r8, #4]
 590              		.loc 9 405 33 view .LVU105
 591 003a 2344     		add	r3, r3, r4
 406:lib/libDaisy/src/hid/disp/display.h ****            || Height() < (currentY_ + font.FontHeight))
 592              		.loc 9 406 12 view .LVU106
 593 003c 8342     		cmp	r3, r0
 594 003e 00F38380 		bgt	.L34
 595              		.loc 9 406 21 discriminator 2 view .LVU107
 596 0042 D8F80030 		ldr	r3, [r8]
 597 0046 554A     		ldr	r2, .L69+4
 598 0048 9B68     		ldr	r3, [r3, #8]
 599 004a 9342     		cmp	r3, r2
 600 004c 40F08880 		bne	.L62
 601              		.loc 9 406 21 view .LVU108
 602 0050 4020     		movs	r0, #64
 603              	.L35:
 604              		.loc 9 406 27 discriminator 2 view .LVU109
 605 0052 B8F80620 		ldrh	r2, [r8, #6]
 606              		.loc 9 406 37 discriminator 2 view .LVU110
 607 0056 9319     		adds	r3, r2, r6
 608              		.loc 9 406 27 discriminator 2 view .LVU111
 609 0058 0192     		str	r2, [sp, #4]
 610              		.loc 9 406 12 discriminator 2 view .LVU112
 611 005a 8342     		cmp	r3, r0
 612 005c 74DC     		bgt	.L34
 613              	.LVL38:
 407:lib/libDaisy/src/hid/disp/display.h ****         {
 408:lib/libDaisy/src/hid/disp/display.h ****             // Not enough space on current line
 409:lib/libDaisy/src/hid/disp/display.h ****             return 0;
 410:lib/libDaisy/src/hid/disp/display.h ****         }
 411:lib/libDaisy/src/hid/disp/display.h **** 
 412:lib/libDaisy/src/hid/disp/display.h ****         // Use the font to write
 413:lib/libDaisy/src/hid/disp/display.h ****         for(i = 0; i < font.FontHeight; i++)
 614              		.loc 9 413 22 is_stmt 1 view .LVU113
ARM GAS  E:\Users\Preston\Documents\AppData\Local\Temp\ccW6aDBy.s 			page 43


 615 005e 002E     		cmp	r6, #0
 616 0060 00F08980 		beq	.L36
 414:lib/libDaisy/src/hid/disp/display.h ****         {
 415:lib/libDaisy/src/hid/disp/display.h ****             b = font.data[(ch - 32) * font.FontHeight + i];
 617              		.loc 9 415 37 is_stmt 0 view .LVU114
 618 0064 06FB05F5 		mul	r5, r6, r5
 619 0068 6FF00040 		mvn	r0, #-2147483648
 620              		.loc 9 415 22 view .LVU115
 621 006c 039B     		ldr	r3, [sp, #12]
 622 006e 9646     		mov	lr, r2
 623 0070 2844     		add	r0, r0, r5
 624 0072 2E44     		add	r6, r6, r5
 416:lib/libDaisy/src/hid/disp/display.h ****             for(j = 0; j < font.FontWidth; j++)
 417:lib/libDaisy/src/hid/disp/display.h ****             {
 418:lib/libDaisy/src/hid/disp/display.h ****                 if((b << j) & 0x8000)
 419:lib/libDaisy/src/hid/disp/display.h ****                 {
 420:lib/libDaisy/src/hid/disp/display.h ****                     ((ChildType*)(this))
 421:lib/libDaisy/src/hid/disp/display.h ****                         ->ChildType::DrawPixel(
 422:lib/libDaisy/src/hid/disp/display.h ****                             currentX_ + j, (currentY_ + i), on);
 423:lib/libDaisy/src/hid/disp/display.h ****                 }
 424:lib/libDaisy/src/hid/disp/display.h ****                 else
 425:lib/libDaisy/src/hid/disp/display.h ****                 {
 426:lib/libDaisy/src/hid/disp/display.h ****                     ((ChildType*)(this))
 427:lib/libDaisy/src/hid/disp/display.h ****                         ->ChildType::DrawPixel(
 428:lib/libDaisy/src/hid/disp/display.h ****                             currentX_ + j, (currentY_ + i), !on);
 429:lib/libDaisy/src/hid/disp/display.h ****                 }
 430:lib/libDaisy/src/hid/disp/display.h ****             }
 431:lib/libDaisy/src/hid/disp/display.h ****         }
 432:lib/libDaisy/src/hid/disp/display.h **** 
 433:lib/libDaisy/src/hid/disp/display.h ****         // The current space is now taken
 434:lib/libDaisy/src/hid/disp/display.h ****         SetCursor(currentX_ + font.FontWidth, currentY_);
 625              		.loc 9 434 19 view .LVU116
 626 0074 B8F804A0 		ldrh	r10, [r8, #4]
 627 0078 03EB4000 		add	r0, r3, r0, lsl #1
 628 007c 023B     		subs	r3, r3, #2
 629 007e 03EB460B 		add	fp, r3, r6, lsl #1
 630              	.LVL39:
 631              	.L39:
 415:lib/libDaisy/src/hid/disp/display.h ****             for(j = 0; j < font.FontWidth; j++)
 632              		.loc 9 415 15 view .LVU117
 633 0082 30F8026F 		ldrh	r6, [r0, #2]!
 634              	.LVL40:
 416:lib/libDaisy/src/hid/disp/display.h ****             for(j = 0; j < font.FontWidth; j++)
 635              		.loc 9 416 26 is_stmt 1 view .LVU118
 636 0086 BCB3     		cbz	r4, .L44
 637              	.LBB575:
 638              	.LBB576:
 639              	.LBB577:
 640              	.LBB578:
 641              	.LBB579:
 359:lib/libDaisy/src/dev/oled_ssd130x.h ****     }
 642              		.loc 7 359 55 is_stmt 0 view .LVU119
 643 0088 0EF00703 		and	r3, lr, #7
 359:lib/libDaisy/src/dev/oled_ssd130x.h ****     }
 644              		.loc 7 359 49 view .LVU120
 645 008c 4FF0010C 		mov	ip, #1
 359:lib/libDaisy/src/dev/oled_ssd130x.h ****     }
ARM GAS  E:\Users\Preston\Documents\AppData\Local\Temp\ccW6aDBy.s 			page 44


 646              		.loc 7 359 28 view .LVU121
 647 0090 4FEADE02 		lsr	r2, lr, #3
 648 0094 5146     		mov	r1, r10
 359:lib/libDaisy/src/dev/oled_ssd130x.h ****     }
 649              		.loc 7 359 49 view .LVU122
 650 0096 0CFA03FC 		lsl	ip, ip, r3
 651 009a 0AF11003 		add	r3, r10, #16
 359:lib/libDaisy/src/dev/oled_ssd130x.h ****     }
 652              		.loc 7 359 42 view .LVU123
 653 009e 4FFA8CFC 		sxtb	ip, ip
 654 00a2 03EBC212 		add	r2, r3, r2, lsl #7
 655              	.LBE579:
 656              	.LBE578:
 657              	.LBE577:
 658              	.LBE576:
 659              	.LBE575:
 416:lib/libDaisy/src/hid/disp/display.h ****             for(j = 0; j < font.FontWidth; j++)
 660              		.loc 9 416 19 view .LVU124
 661 00a6 0023     		movs	r3, #0
 662              	.LBB597:
 663              	.LBB592:
 664              	.LBB587:
 665              	.LBB583:
 666              	.LBB580:
 359:lib/libDaisy/src/dev/oled_ssd130x.h ****     }
 667              		.loc 7 359 42 view .LVU125
 668 00a8 6FEA0C09 		mvn	r9, ip
 669 00ac 4244     		add	r2, r2, r8
 670 00ae 0EE0     		b	.L45
 671              	.LVL41:
 672              	.L63:
 359:lib/libDaisy/src/dev/oled_ssd130x.h ****     }
 673              		.loc 7 359 42 view .LVU126
 674              	.LBE580:
 675              	.LBE583:
 676              	.LBE587:
 677              	.LBE592:
 678              	.LBE597:
 679              	.LBB598:
 680              	.LBI598:
  35:lib/libDaisy/src/hid/disp/oled_display.h **** 
  36:lib/libDaisy/src/hid/disp/oled_display.h ****     /**
  37:lib/libDaisy/src/hid/disp/oled_display.h ****     Sets the pixel at the specified coordinate to be on/off.
  38:lib/libDaisy/src/hid/disp/oled_display.h ****     \param x   x Coordinate
  39:lib/libDaisy/src/hid/disp/oled_display.h ****     \param y   y coordinate
  40:lib/libDaisy/src/hid/disp/oled_display.h ****     \param on  on or off
  41:lib/libDaisy/src/hid/disp/oled_display.h ****     */
  42:lib/libDaisy/src/hid/disp/oled_display.h ****     void DrawPixel(uint_fast8_t x, uint_fast8_t y, bool on) override
 681              		.loc 6 42 10 is_stmt 1 view .LVU127
 682              	.LBB599:
 683              	.LBI599:
 352:lib/libDaisy/src/dev/oled_ssd130x.h ****     {
 684              		.loc 7 352 10 view .LVU128
 685              	.LBB600:
 354:lib/libDaisy/src/dev/oled_ssd130x.h ****             return;
 686              		.loc 7 354 9 is_stmt 0 view .LVU129
 687 00b0 7F29     		cmp	r1, #127
ARM GAS  E:\Users\Preston\Documents\AppData\Local\Temp\ccW6aDBy.s 			page 45


 688 00b2 07D8     		bhi	.L41
 689 00b4 BEF13F0F 		cmp	lr, #63
 690 00b8 04D8     		bhi	.L41
 357:lib/libDaisy/src/dev/oled_ssd130x.h ****         else
 691              		.loc 7 357 42 view .LVU130
 692 00ba 1578     		ldrb	r5, [r2]	@ zero_extendqisi2
 356:lib/libDaisy/src/dev/oled_ssd130x.h ****             buffer_[x + (y / 8) * width] |= (1 << (y % 8));
 693              		.loc 7 356 9 view .LVU131
 694 00bc 9FB1     		cbz	r7, .L43
 695              	.L60:
 356:lib/libDaisy/src/dev/oled_ssd130x.h ****             buffer_[x + (y / 8) * width] |= (1 << (y % 8));
 696              		.loc 7 356 9 view .LVU132
 697              	.LBE600:
 698              	.LBE599:
 699              	.LBE598:
 700              	.LBB601:
 701              	.LBB593:
 702              	.LBB588:
 357:lib/libDaisy/src/dev/oled_ssd130x.h ****         else
 703              		.loc 7 357 42 view .LVU133
 704 00be 4CEA0505 		orr	r5, ip, r5
 705 00c2 1570     		strb	r5, [r2]
 706              	.L41:
 707              	.LBE588:
 708              	.LBE593:
 709              	.LBE601:
 416:lib/libDaisy/src/hid/disp/display.h ****             {
 710              		.loc 9 416 13 is_stmt 1 discriminator 2 view .LVU134
 711 00c4 0133     		adds	r3, r3, #1
 712              	.LVL42:
 416:lib/libDaisy/src/hid/disp/display.h ****             {
 713              		.loc 9 416 26 discriminator 2 view .LVU135
 714 00c6 0132     		adds	r2, r2, #1
 715 00c8 0131     		adds	r1, r1, #1
 716 00ca 9C42     		cmp	r4, r3
 717 00cc 14D0     		beq	.L44
 718              	.LVL43:
 719              	.L45:
 418:lib/libDaisy/src/hid/disp/display.h ****                 {
 720              		.loc 9 418 23 is_stmt 0 view .LVU136
 721 00ce 06FA03F5 		lsl	r5, r6, r3
 418:lib/libDaisy/src/hid/disp/display.h ****                 {
 722              		.loc 9 418 17 view .LVU137
 723 00d2 2D04     		lsls	r5, r5, #16
 724 00d4 ECD4     		bmi	.L63
 725              	.LVL44:
 726              	.LBB602:
 727              	.LBI575:
 728              		.loc 6 42 10 is_stmt 1 view .LVU138
 729              	.LBB594:
 730              	.LBI576:
 352:lib/libDaisy/src/dev/oled_ssd130x.h ****     {
 731              		.loc 7 352 10 view .LVU139
 732              	.LBB589:
 354:lib/libDaisy/src/dev/oled_ssd130x.h ****             return;
 733              		.loc 7 354 9 is_stmt 0 view .LVU140
 734 00d6 7F29     		cmp	r1, #127
ARM GAS  E:\Users\Preston\Documents\AppData\Local\Temp\ccW6aDBy.s 			page 46


 735 00d8 F4D8     		bhi	.L41
 736 00da BEF13F0F 		cmp	lr, #63
 737 00de F1D8     		bhi	.L41
 357:lib/libDaisy/src/dev/oled_ssd130x.h ****         else
 738              		.loc 7 357 42 view .LVU141
 739 00e0 1578     		ldrb	r5, [r2]	@ zero_extendqisi2
 356:lib/libDaisy/src/dev/oled_ssd130x.h ****             buffer_[x + (y / 8) * width] |= (1 << (y % 8));
 740              		.loc 7 356 9 view .LVU142
 741 00e2 002F     		cmp	r7, #0
 742 00e4 EBD0     		beq	.L60
 743              	.L43:
 744              	.LVL45:
 745              	.LBB584:
 746              	.LBI578:
 352:lib/libDaisy/src/dev/oled_ssd130x.h ****     {
 747              		.loc 7 352 10 is_stmt 1 view .LVU143
 352:lib/libDaisy/src/dev/oled_ssd130x.h ****     {
 748              		.loc 7 352 10 is_stmt 0 view .LVU144
 749              	.LBE584:
 750              	.LBE589:
 751              	.LBE594:
 752              	.LBE602:
 416:lib/libDaisy/src/hid/disp/display.h ****             {
 753              		.loc 9 416 13 view .LVU145
 754 00e6 0133     		adds	r3, r3, #1
 755              	.LVL46:
 756              	.LBB603:
 757              	.LBB595:
 758              	.LBB590:
 759              	.LBB585:
 760              	.LBB581:
 359:lib/libDaisy/src/dev/oled_ssd130x.h ****     }
 761              		.loc 7 359 42 view .LVU146
 762 00e8 09EA0505 		and	r5, r9, r5
 763              	.LBE581:
 764              	.LBE585:
 765              	.LBE590:
 766              	.LBE595:
 767              	.LBE603:
 416:lib/libDaisy/src/hid/disp/display.h ****             {
 768              		.loc 9 416 26 view .LVU147
 769 00ec 0132     		adds	r2, r2, #1
 770 00ee 0131     		adds	r1, r1, #1
 771 00f0 9C42     		cmp	r4, r3
 772              	.LBB604:
 773              	.LBB596:
 774              	.LBB591:
 775              	.LBB586:
 776              	.LBB582:
 359:lib/libDaisy/src/dev/oled_ssd130x.h ****     }
 777              		.loc 7 359 42 view .LVU148
 778 00f2 02F8015C 		strb	r5, [r2, #-1]
 359:lib/libDaisy/src/dev/oled_ssd130x.h ****     }
 779              		.loc 7 359 42 view .LVU149
 780              	.LBE582:
 781              	.LBE586:
 782              	.LBE591:
ARM GAS  E:\Users\Preston\Documents\AppData\Local\Temp\ccW6aDBy.s 			page 47


 783              	.LBE596:
 784              	.LBE604:
 416:lib/libDaisy/src/hid/disp/display.h ****             {
 785              		.loc 9 416 13 is_stmt 1 view .LVU150
 786              	.LVL47:
 416:lib/libDaisy/src/hid/disp/display.h ****             {
 787              		.loc 9 416 26 view .LVU151
 788 00f6 EAD1     		bne	.L45
 789              	.LVL48:
 790              	.L44:
 413:lib/libDaisy/src/hid/disp/display.h ****         {
 791              		.loc 9 413 9 view .LVU152
 413:lib/libDaisy/src/hid/disp/display.h ****         {
 792              		.loc 9 413 22 view .LVU153
 793 00f8 5845     		cmp	r0, fp
 794 00fa 0EF1010E 		add	lr, lr, #1
 795 00fe C0D1     		bne	.L39
 796              	.LVL49:
 797              	.L38:
 798              	.LBB605:
 799              	.LBB606:
 173:lib/libDaisy/src/hid/disp/display.h ****         currentY_ = (y >= Height()) ? Height() - 1 : y;
 800              		.loc 9 173 33 is_stmt 0 view .LVU154
 801 0100 D8F80030 		ldr	r3, [r8]
 802              	.LBE606:
 803              	.LBE605:
 804              		.loc 9 434 18 view .LVU155
 805 0104 5444     		add	r4, r4, r10
 806 0106 2449     		ldr	r1, .L69
 807              	.LBB612:
 808              	.LBB607:
 173:lib/libDaisy/src/hid/disp/display.h ****         currentY_ = (y >= Height()) ? Height() - 1 : y;
 809              		.loc 9 173 33 view .LVU156
 810 0108 DA68     		ldr	r2, [r3, #12]
 811              	.LBE607:
 812              	.LBE612:
 813              		.loc 9 434 18 view .LVU157
 814 010a A4B2     		uxth	r4, r4
 815              	.LVL50:
 816              	.LBB613:
 817              	.LBI605:
 171:lib/libDaisy/src/hid/disp/display.h ****     {
 818              		.loc 9 171 10 is_stmt 1 view .LVU158
 819              	.LBB608:
 173:lib/libDaisy/src/hid/disp/display.h ****         currentY_ = (y >= Height()) ? Height() - 1 : y;
 820              		.loc 9 173 9 view .LVU159
 821 010c 8A42     		cmp	r2, r1
 822 010e 2DD1     		bne	.L64
 173:lib/libDaisy/src/hid/disp/display.h ****         currentY_ = (y >= Height()) ? Height() - 1 : y;
 823              		.loc 9 173 33 is_stmt 0 view .LVU160
 824 0110 8020     		movs	r0, #128
 825              	.L46:
 173:lib/libDaisy/src/hid/disp/display.h ****         currentY_ = (y >= Height()) ? Height() - 1 : y;
 826              		.loc 9 173 19 view .LVU161
 827 0112 8442     		cmp	r4, r0
 828 0114 1CD2     		bcs	.L65
 829              	.LVL51:
ARM GAS  E:\Users\Preston\Documents\AppData\Local\Temp\ccW6aDBy.s 			page 48


 830              	.L47:
 174:lib/libDaisy/src/hid/disp/display.h ****     }
 831              		.loc 9 174 34 view .LVU162
 832 0116 9B68     		ldr	r3, [r3, #8]
 833 0118 204A     		ldr	r2, .L69+4
 173:lib/libDaisy/src/hid/disp/display.h ****         currentY_ = (y >= Height()) ? Height() - 1 : y;
 834              		.loc 9 173 19 view .LVU163
 835 011a A8F80440 		strh	r4, [r8, #4]	@ movhi
 174:lib/libDaisy/src/hid/disp/display.h ****     }
 836              		.loc 9 174 9 is_stmt 1 view .LVU164
 837 011e 9342     		cmp	r3, r2
 838 0120 21D1     		bne	.L66
 174:lib/libDaisy/src/hid/disp/display.h ****     }
 839              		.loc 9 174 34 is_stmt 0 view .LVU165
 840 0122 4020     		movs	r0, #64
 841              	.L49:
 174:lib/libDaisy/src/hid/disp/display.h ****     }
 842              		.loc 9 174 19 view .LVU166
 843 0124 019B     		ldr	r3, [sp, #4]
 844 0126 8342     		cmp	r3, r0
 845 0128 07D3     		bcc	.L50
 174:lib/libDaisy/src/hid/disp/display.h ****     }
 846              		.loc 9 174 46 view .LVU167
 847 012a D8F80030 		ldr	r3, [r8]
 848 012e 1B4A     		ldr	r2, .L69+4
 849 0130 9B68     		ldr	r3, [r3, #8]
 850 0132 9342     		cmp	r3, r2
 851 0134 29D1     		bne	.L67
 852 0136 3F23     		movs	r3, #63
 853 0138 0193     		str	r3, [sp, #4]
 854              	.LVL52:
 855              	.L50:
 174:lib/libDaisy/src/hid/disp/display.h ****     }
 856              		.loc 9 174 19 view .LVU168
 857 013a DDE90003 		ldrd	r0, r3, [sp]
 858 013e A8F80630 		strh	r3, [r8, #6]	@ movhi
 859              	.LVL53:
 174:lib/libDaisy/src/hid/disp/display.h ****     }
 860              		.loc 9 174 19 view .LVU169
 861              	.LBE608:
 862              	.LBE613:
 435:lib/libDaisy/src/hid/disp/display.h **** 
 436:lib/libDaisy/src/hid/disp/display.h ****         // Return written char for validation
 437:lib/libDaisy/src/hid/disp/display.h ****         return ch;
 438:lib/libDaisy/src/hid/disp/display.h ****     }
 863              		.loc 9 438 5 view .LVU170
 864 0142 05B0     		add	sp, sp, #20
 865              		.cfi_remember_state
 866              		.cfi_def_cfa_offset 36
 867              		@ sp needed
 868 0144 BDE8F08F 		pop	{r4, r5, r6, r7, r8, r9, r10, fp, pc}
 869              	.LVL54:
 870              	.L34:
 871              		.cfi_restore_state
 402:lib/libDaisy/src/hid/disp/display.h **** 
 872              		.loc 9 402 20 view .LVU171
 873 0148 0020     		movs	r0, #0
ARM GAS  E:\Users\Preston\Documents\AppData\Local\Temp\ccW6aDBy.s 			page 49


 874              		.loc 9 438 5 view .LVU172
 875 014a 05B0     		add	sp, sp, #20
 876              		.cfi_remember_state
 877              		.cfi_def_cfa_offset 36
 878              		@ sp needed
 879 014c BDE8F08F 		pop	{r4, r5, r6, r7, r8, r9, r10, fp, pc}
 880              	.LVL55:
 881              	.L65:
 882              		.cfi_restore_state
 883              	.LBB614:
 884              	.LBB609:
 173:lib/libDaisy/src/hid/disp/display.h ****         currentY_ = (y >= Height()) ? Height() - 1 : y;
 885              		.loc 9 173 44 view .LVU173
 886 0150 DA68     		ldr	r2, [r3, #12]
 887 0152 1149     		ldr	r1, .L69
 888 0154 8A42     		cmp	r2, r1
 889 0156 11D1     		bne	.L68
 890 0158 7F24     		movs	r4, #127
 891              	.LVL56:
 173:lib/libDaisy/src/hid/disp/display.h ****         currentY_ = (y >= Height()) ? Height() - 1 : y;
 892              		.loc 9 173 44 view .LVU174
 893 015a DCE7     		b	.L47
 894              	.LVL57:
 895              	.L61:
 173:lib/libDaisy/src/hid/disp/display.h ****         currentY_ = (y >= Height()) ? Height() - 1 : y;
 896              		.loc 9 173 44 view .LVU175
 897              	.LBE609:
 898              	.LBE614:
 405:lib/libDaisy/src/hid/disp/display.h ****            || Height() < (currentY_ + font.FontHeight))
 899              		.loc 9 405 17 view .LVU176
 900 015c 9847     		blx	r3
 901              	.LVL58:
 405:lib/libDaisy/src/hid/disp/display.h ****            || Height() < (currentY_ + font.FontHeight))
 902              		.loc 9 405 17 view .LVU177
 903 015e 6AE7     		b	.L33
 904              	.L62:
 406:lib/libDaisy/src/hid/disp/display.h ****         {
 905              		.loc 9 406 21 discriminator 2 view .LVU178
 906 0160 4046     		mov	r0, r8
 907 0162 9847     		blx	r3
 908              	.LVL59:
 909 0164 75E7     		b	.L35
 910              	.LVL60:
 911              	.L66:
 912              	.LBB615:
 913              	.LBB610:
 174:lib/libDaisy/src/hid/disp/display.h ****     }
 914              		.loc 9 174 33 view .LVU179
 915 0166 4046     		mov	r0, r8
 916 0168 9847     		blx	r3
 917              	.LVL61:
 918 016a DBE7     		b	.L49
 919              	.LVL62:
 920              	.L64:
 173:lib/libDaisy/src/hid/disp/display.h ****         currentY_ = (y >= Height()) ? Height() - 1 : y;
 921              		.loc 9 173 32 view .LVU180
 922 016c 4046     		mov	r0, r8
ARM GAS  E:\Users\Preston\Documents\AppData\Local\Temp\ccW6aDBy.s 			page 50


 923 016e 9047     		blx	r2
 924              	.LVL63:
 173:lib/libDaisy/src/hid/disp/display.h ****         currentY_ = (y >= Height()) ? Height() - 1 : y;
 925              		.loc 9 173 44 view .LVU181
 926 0170 D8F80030 		ldr	r3, [r8]
 927 0174 CDE7     		b	.L46
 928              	.LVL64:
 929              	.L36:
 173:lib/libDaisy/src/hid/disp/display.h ****         currentY_ = (y >= Height()) ? Height() - 1 : y;
 930              		.loc 9 173 44 view .LVU182
 931              	.LBE610:
 932              	.LBE615:
 434:lib/libDaisy/src/hid/disp/display.h **** 
 933              		.loc 9 434 19 view .LVU183
 934 0176 B8F804A0 		ldrh	r10, [r8, #4]
 935 017a C1E7     		b	.L38
 936              	.LVL65:
 937              	.L68:
 938              	.LBB616:
 939              	.LBB611:
 173:lib/libDaisy/src/hid/disp/display.h ****         currentY_ = (y >= Height()) ? Height() - 1 : y;
 940              		.loc 9 173 43 view .LVU184
 941 017c 4046     		mov	r0, r8
 942 017e 9047     		blx	r2
 943              	.LVL66:
 173:lib/libDaisy/src/hid/disp/display.h ****         currentY_ = (y >= Height()) ? Height() - 1 : y;
 944              		.loc 9 173 19 view .LVU185
 945 0180 0138     		subs	r0, r0, #1
 174:lib/libDaisy/src/hid/disp/display.h ****     }
 946              		.loc 9 174 34 view .LVU186
 947 0182 D8F80030 		ldr	r3, [r8]
 173:lib/libDaisy/src/hid/disp/display.h ****         currentY_ = (y >= Height()) ? Height() - 1 : y;
 948              		.loc 9 173 19 view .LVU187
 949 0186 84B2     		uxth	r4, r0
 950              	.LVL67:
 173:lib/libDaisy/src/hid/disp/display.h ****         currentY_ = (y >= Height()) ? Height() - 1 : y;
 951              		.loc 9 173 19 view .LVU188
 952 0188 C5E7     		b	.L47
 953              	.L67:
 174:lib/libDaisy/src/hid/disp/display.h ****     }
 954              		.loc 9 174 45 view .LVU189
 955 018a 4046     		mov	r0, r8
 956 018c 9847     		blx	r3
 957              	.LVL68:
 174:lib/libDaisy/src/hid/disp/display.h ****     }
 958              		.loc 9 174 19 view .LVU190
 959 018e 0138     		subs	r0, r0, #1
 960 0190 83B2     		uxth	r3, r0
 961 0192 0193     		str	r3, [sp, #4]
 962              	.LVL69:
 174:lib/libDaisy/src/hid/disp/display.h ****     }
 963              		.loc 9 174 19 view .LVU191
 964 0194 D1E7     		b	.L50
 965              	.L70:
 966 0196 00BF     		.align	2
 967              	.L69:
 968 0198 00000000 		.word	_ZNK5daisy11OledDisplayINS_13SSD130xDriverILj128ELj64ENS_19SSD130xI2CTransportEEEE5WidthEv
ARM GAS  E:\Users\Preston\Documents\AppData\Local\Temp\ccW6aDBy.s 			page 51


 969 019c 00000000 		.word	_ZNK5daisy11OledDisplayINS_13SSD130xDriverILj128ELj64ENS_19SSD130xI2CTransportEEEE6HeightEv
 970              	.LBE611:
 971              	.LBE616:
 972              		.cfi_endproc
 973              	.LFE2669:
 975              		.section	.text._ZN5daisy11OledDisplayINS_13SSD130xDriverILj128ELj64ENS_19SSD130xI2CTransportEEEE6U
 976              		.align	1
 977              		.p2align 2,,3
 978              		.weak	_ZN5daisy11OledDisplayINS_13SSD130xDriverILj128ELj64ENS_19SSD130xI2CTransportEEEE6UpdateEv
 979              		.syntax unified
 980              		.thumb
 981              		.thumb_func
 982              		.fpu fpv5-d16
 984              	_ZN5daisy11OledDisplayINS_13SSD130xDriverILj128ELj64ENS_19SSD130xI2CTransportEEEE6UpdateEv:
 985              	.LVL70:
 986              	.LFB2631:
  43:lib/libDaisy/src/hid/disp/oled_display.h ****     {
  44:lib/libDaisy/src/hid/disp/oled_display.h ****         driver_.DrawPixel(x, y, on);
  45:lib/libDaisy/src/hid/disp/oled_display.h ****     }
  46:lib/libDaisy/src/hid/disp/oled_display.h **** 
  47:lib/libDaisy/src/hid/disp/oled_display.h ****     /** 
  48:lib/libDaisy/src/hid/disp/oled_display.h ****     Writes the current display buffer to the OLED device using SPI or I2C depending on 
  49:lib/libDaisy/src/hid/disp/oled_display.h ****     how the object was initialized.
  50:lib/libDaisy/src/hid/disp/oled_display.h ****     */
  51:lib/libDaisy/src/hid/disp/oled_display.h ****     void Update() override { driver_.Update(); }
 987              		.loc 6 51 10 is_stmt 1 view -0
 988              		.cfi_startproc
 989              		@ args = 0, pretend = 0, frame = 8
 990              		@ frame_needed = 0, uses_anonymous_args = 0
 991              		.loc 6 51 10 is_stmt 0 view .LVU193
 992 0000 2DE9F04F 		push	{r4, r5, r6, r7, r8, r9, r10, fp, lr}
 993              		.cfi_def_cfa_offset 36
 994              		.cfi_offset 4, -36
 995              		.cfi_offset 5, -32
 996              		.cfi_offset 6, -28
 997              		.cfi_offset 7, -24
 998              		.cfi_offset 8, -20
 999              		.cfi_offset 9, -16
 1000              		.cfi_offset 10, -12
 1001              		.cfi_offset 11, -8
 1002              		.cfi_offset 14, -4
 1003              	.LBB629:
 1004              	.LBB630:
 1005              	.LBB631:
 1006              	.LBB632:
  45:lib/libDaisy/src/dev/oled_ssd130x.h ****     };
 1007              		.loc 7 45 30 view .LVU194
 1008 0004 4FF0B008 		mov	r8, #176
 1009              	.LBE632:
 1010              	.LBE631:
 1011              	.LBE630:
 1012              	.LBE629:
 1013              		.loc 6 51 10 view .LVU195
 1014 0008 85B0     		sub	sp, sp, #20
 1015              		.cfi_def_cfa_offset 56
 1016              		.loc 6 51 10 view .LVU196
 1017 000a 0546     		mov	r5, r0
ARM GAS  E:\Users\Preston\Documents\AppData\Local\Temp\ccW6aDBy.s 			page 52


 1018              	.LVL71:
 1019              	.LBB644:
 1020              	.LBI629:
 367:lib/libDaisy/src/dev/oled_ssd130x.h ****         }
 368:lib/libDaisy/src/dev/oled_ssd130x.h ****     };
 369:lib/libDaisy/src/dev/oled_ssd130x.h **** 
 370:lib/libDaisy/src/dev/oled_ssd130x.h ****     /**
 371:lib/libDaisy/src/dev/oled_ssd130x.h ****      * Update the display 
 372:lib/libDaisy/src/dev/oled_ssd130x.h ****     */
 373:lib/libDaisy/src/dev/oled_ssd130x.h ****     void Update()
 1021              		.loc 7 373 10 is_stmt 1 view .LVU197
 1022              	.LBB643:
 374:lib/libDaisy/src/dev/oled_ssd130x.h ****     {
 375:lib/libDaisy/src/dev/oled_ssd130x.h ****         uint8_t i;
 376:lib/libDaisy/src/dev/oled_ssd130x.h ****         uint8_t high_column_addr;
 377:lib/libDaisy/src/dev/oled_ssd130x.h ****         switch(height)
 378:lib/libDaisy/src/dev/oled_ssd130x.h ****         {
 379:lib/libDaisy/src/dev/oled_ssd130x.h ****             case 32: high_column_addr = 0x12; break;
 380:lib/libDaisy/src/dev/oled_ssd130x.h **** 
 381:lib/libDaisy/src/dev/oled_ssd130x.h ****             default: high_column_addr = 0x10; break;
 382:lib/libDaisy/src/dev/oled_ssd130x.h ****         }
 383:lib/libDaisy/src/dev/oled_ssd130x.h ****         for(i = 0; i < (height / 8); i++)
 1023              		.loc 7 383 22 view .LVU198
 1024              	.LBB635:
 1025              	.LBB633:
  45:lib/libDaisy/src/dev/oled_ssd130x.h ****     };
 1026              		.loc 7 45 30 is_stmt 0 view .LVU199
 1027 000c 00F10807 		add	r7, r0, #8
 1028              	.LVL72:
  45:lib/libDaisy/src/dev/oled_ssd130x.h ****     };
 1029              		.loc 7 45 30 view .LVU200
 1030 0010 00F18F06 		add	r6, r0, #143
 1031 0014 00F28F49 		addw	r9, r0, #1167
 1032              	.LVL73:
 1033              	.L73:
  45:lib/libDaisy/src/dev/oled_ssd130x.h ****     };
 1034              		.loc 7 45 30 view .LVU201
 1035              	.LBE633:
 1036              	.LBI631:
  42:lib/libDaisy/src/dev/oled_ssd130x.h ****     {
 1037              		.loc 7 42 10 is_stmt 1 view .LVU202
 1038              	.LBB634:
  44:lib/libDaisy/src/dev/oled_ssd130x.h ****         i2c_.TransmitBlocking(i2c_address_, buf, 2, 1000);
 1039              		.loc 7 44 9 view .LVU203
  45:lib/libDaisy/src/dev/oled_ssd130x.h ****     };
 1040              		.loc 7 45 30 is_stmt 0 view .LVU204
 1041 0018 4FF47A7B 		mov	fp, #1000
  44:lib/libDaisy/src/dev/oled_ssd130x.h ****         i2c_.TransmitBlocking(i2c_address_, buf, 2, 1000);
 1042              		.loc 7 44 17 view .LVU205
 1043 001c 4FF0000A 		mov	r10, #0
  45:lib/libDaisy/src/dev/oled_ssd130x.h ****     };
 1044              		.loc 7 45 30 view .LVU206
 1045 0020 297B     		ldrb	r1, [r5, #12]	@ zero_extendqisi2
 1046 0022 0223     		movs	r3, #2
 1047 0024 03AA     		add	r2, sp, #12
 1048 0026 3846     		mov	r0, r7
 1049 0028 CDF800B0 		str	fp, [sp]
ARM GAS  E:\Users\Preston\Documents\AppData\Local\Temp\ccW6aDBy.s 			page 53


 1050 002c A6F18004 		sub	r4, r6, #128
  44:lib/libDaisy/src/dev/oled_ssd130x.h ****         i2c_.TransmitBlocking(i2c_address_, buf, 2, 1000);
 1051              		.loc 7 44 17 view .LVU207
 1052 0030 8DF80CA0 		strb	r10, [sp, #12]
  44:lib/libDaisy/src/dev/oled_ssd130x.h ****         i2c_.TransmitBlocking(i2c_address_, buf, 2, 1000);
 1053              		.loc 7 44 36 view .LVU208
 1054 0034 8DF80D80 		strb	r8, [sp, #13]
  45:lib/libDaisy/src/dev/oled_ssd130x.h ****     };
 1055              		.loc 7 45 9 is_stmt 1 view .LVU209
  45:lib/libDaisy/src/dev/oled_ssd130x.h ****     };
 1056              		.loc 7 45 30 is_stmt 0 view .LVU210
 1057 0038 FFF7FEFF 		bl	_ZN5daisy9I2CHandle16TransmitBlockingEtPhtm
 1058              	.LVL74:
  45:lib/libDaisy/src/dev/oled_ssd130x.h ****     };
 1059              		.loc 7 45 30 view .LVU211
 1060              	.LBE634:
 1061              	.LBE635:
 1062              	.LBB636:
 1063              	.LBI636:
  42:lib/libDaisy/src/dev/oled_ssd130x.h ****     {
 1064              		.loc 7 42 10 is_stmt 1 view .LVU212
 1065              	.LBB637:
  44:lib/libDaisy/src/dev/oled_ssd130x.h ****         i2c_.TransmitBlocking(i2c_address_, buf, 2, 1000);
 1066              		.loc 7 44 9 view .LVU213
  45:lib/libDaisy/src/dev/oled_ssd130x.h ****     };
 1067              		.loc 7 45 30 is_stmt 0 view .LVU214
 1068 003c 297B     		ldrb	r1, [r5, #12]	@ zero_extendqisi2
 1069 003e 0223     		movs	r3, #2
 1070 0040 03AA     		add	r2, sp, #12
 1071 0042 3846     		mov	r0, r7
 1072 0044 CDF800B0 		str	fp, [sp]
  44:lib/libDaisy/src/dev/oled_ssd130x.h ****         i2c_.TransmitBlocking(i2c_address_, buf, 2, 1000);
 1073              		.loc 7 44 17 view .LVU215
 1074 0048 8DF80CA0 		strb	r10, [sp, #12]
  44:lib/libDaisy/src/dev/oled_ssd130x.h ****         i2c_.TransmitBlocking(i2c_address_, buf, 2, 1000);
 1075              		.loc 7 44 36 view .LVU216
 1076 004c 8DF80DA0 		strb	r10, [sp, #13]
  45:lib/libDaisy/src/dev/oled_ssd130x.h ****     };
 1077              		.loc 7 45 9 is_stmt 1 view .LVU217
  45:lib/libDaisy/src/dev/oled_ssd130x.h ****     };
 1078              		.loc 7 45 30 is_stmt 0 view .LVU218
 1079 0050 FFF7FEFF 		bl	_ZN5daisy9I2CHandle16TransmitBlockingEtPhtm
 1080              	.LVL75:
  45:lib/libDaisy/src/dev/oled_ssd130x.h ****     };
 1081              		.loc 7 45 30 view .LVU219
 1082              	.LBE637:
 1083              	.LBE636:
 1084              	.LBB638:
 1085              	.LBI638:
  42:lib/libDaisy/src/dev/oled_ssd130x.h ****     {
 1086              		.loc 7 42 10 is_stmt 1 view .LVU220
 1087              	.LBB639:
  44:lib/libDaisy/src/dev/oled_ssd130x.h ****         i2c_.TransmitBlocking(i2c_address_, buf, 2, 1000);
 1088              		.loc 7 44 9 view .LVU221
  44:lib/libDaisy/src/dev/oled_ssd130x.h ****         i2c_.TransmitBlocking(i2c_address_, buf, 2, 1000);
 1089              		.loc 7 44 36 is_stmt 0 view .LVU222
 1090 0054 4FF0100C 		mov	ip, #16
ARM GAS  E:\Users\Preston\Documents\AppData\Local\Temp\ccW6aDBy.s 			page 54


  45:lib/libDaisy/src/dev/oled_ssd130x.h ****     };
 1091              		.loc 7 45 30 view .LVU223
 1092 0058 297B     		ldrb	r1, [r5, #12]	@ zero_extendqisi2
 1093 005a 0223     		movs	r3, #2
 1094 005c 03AA     		add	r2, sp, #12
 1095 005e 3846     		mov	r0, r7
 1096 0060 CDF800B0 		str	fp, [sp]
  44:lib/libDaisy/src/dev/oled_ssd130x.h ****         i2c_.TransmitBlocking(i2c_address_, buf, 2, 1000);
 1097              		.loc 7 44 17 view .LVU224
 1098 0064 8DF80CA0 		strb	r10, [sp, #12]
  44:lib/libDaisy/src/dev/oled_ssd130x.h ****         i2c_.TransmitBlocking(i2c_address_, buf, 2, 1000);
 1099              		.loc 7 44 36 view .LVU225
 1100 0068 8DF80DC0 		strb	ip, [sp, #13]
  45:lib/libDaisy/src/dev/oled_ssd130x.h ****     };
 1101              		.loc 7 45 9 is_stmt 1 view .LVU226
  45:lib/libDaisy/src/dev/oled_ssd130x.h ****     };
 1102              		.loc 7 45 30 is_stmt 0 view .LVU227
 1103 006c FFF7FEFF 		bl	_ZN5daisy9I2CHandle16TransmitBlockingEtPhtm
 1104              	.LVL76:
  45:lib/libDaisy/src/dev/oled_ssd130x.h ****     };
 1105              		.loc 7 45 30 view .LVU228
 1106              	.LBE639:
 1107              	.LBE638:
 1108              	.LBB640:
 1109              	.LBI640:
  48:lib/libDaisy/src/dev/oled_ssd130x.h ****     {
 1110              		.loc 7 48 10 is_stmt 1 view .LVU229
 1111              	.LBB641:
  50:lib/libDaisy/src/dev/oled_ssd130x.h ****         {
 1112              		.loc 7 50 29 view .LVU230
 1113              	.L72:
 1114              	.LBB642:
  52:lib/libDaisy/src/dev/oled_ssd130x.h ****             i2c_.TransmitBlocking(i2c_address_, buf, 2, 1000);
 1115              		.loc 7 52 13 view .LVU231
  53:lib/libDaisy/src/dev/oled_ssd130x.h ****         }
 1116              		.loc 7 53 34 is_stmt 0 view .LVU232
 1117 0070 4FF47A70 		mov	r0, #1000
  52:lib/libDaisy/src/dev/oled_ssd130x.h ****             i2c_.TransmitBlocking(i2c_address_, buf, 2, 1000);
 1118              		.loc 7 52 44 view .LVU233
 1119 0074 14F801CF 		ldrb	ip, [r4, #1]!	@ zero_extendqisi2
 1120              	.LVL77:
  52:lib/libDaisy/src/dev/oled_ssd130x.h ****             i2c_.TransmitBlocking(i2c_address_, buf, 2, 1000);
 1121              		.loc 7 52 21 view .LVU234
 1122 0078 4FF0400E 		mov	lr, #64
  53:lib/libDaisy/src/dev/oled_ssd130x.h ****         }
 1123              		.loc 7 53 34 view .LVU235
 1124 007c 297B     		ldrb	r1, [r5, #12]	@ zero_extendqisi2
 1125 007e 0223     		movs	r3, #2
 1126 0080 0090     		str	r0, [sp]
 1127 0082 03AA     		add	r2, sp, #12
 1128 0084 3846     		mov	r0, r7
  52:lib/libDaisy/src/dev/oled_ssd130x.h ****             i2c_.TransmitBlocking(i2c_address_, buf, 2, 1000);
 1129              		.loc 7 52 21 view .LVU236
 1130 0086 8DF80CE0 		strb	lr, [sp, #12]
  52:lib/libDaisy/src/dev/oled_ssd130x.h ****             i2c_.TransmitBlocking(i2c_address_, buf, 2, 1000);
 1131              		.loc 7 52 44 view .LVU237
 1132 008a 8DF80DC0 		strb	ip, [sp, #13]
ARM GAS  E:\Users\Preston\Documents\AppData\Local\Temp\ccW6aDBy.s 			page 55


  53:lib/libDaisy/src/dev/oled_ssd130x.h ****         }
 1133              		.loc 7 53 13 is_stmt 1 view .LVU238
  53:lib/libDaisy/src/dev/oled_ssd130x.h ****         }
 1134              		.loc 7 53 34 is_stmt 0 view .LVU239
 1135 008e FFF7FEFF 		bl	_ZN5daisy9I2CHandle16TransmitBlockingEtPhtm
 1136              	.LVL78:
 1137              	.LBE642:
  50:lib/libDaisy/src/dev/oled_ssd130x.h ****         {
 1138              		.loc 7 50 9 is_stmt 1 view .LVU240
  50:lib/libDaisy/src/dev/oled_ssd130x.h ****         {
 1139              		.loc 7 50 29 view .LVU241
 1140 0092 B442     		cmp	r4, r6
 1141 0094 ECD1     		bne	.L72
 1142              	.LVL79:
  50:lib/libDaisy/src/dev/oled_ssd130x.h ****         {
 1143              		.loc 7 50 29 is_stmt 0 view .LVU242
 1144              	.LBE641:
 1145              	.LBE640:
 1146              		.loc 7 383 9 is_stmt 1 view .LVU243
 1147              		.loc 7 383 22 view .LVU244
 1148 0096 04F18006 		add	r6, r4, #128
 1149 009a 08F10108 		add	r8, r8, #1
 1150              	.LVL80:
 1151              		.loc 7 383 22 is_stmt 0 view .LVU245
 1152 009e 4E45     		cmp	r6, r9
 1153 00a0 5FFA88F8 		uxtb	r8, r8
 1154 00a4 B8D1     		bne	.L73
 1155              	.LBE643:
 1156              	.LBE644:
 1157              		.loc 6 51 48 view .LVU246
 1158 00a6 05B0     		add	sp, sp, #20
 1159              		.cfi_def_cfa_offset 36
 1160              		@ sp needed
 1161 00a8 BDE8F08F 		pop	{r4, r5, r6, r7, r8, r9, r10, fp, pc}
 1162              		.loc 6 51 48 view .LVU247
 1163              		.cfi_endproc
 1164              	.LFE2631:
 1166              		.section	.text._ZN5daisy11OledDisplayINS_13SSD130xDriverILj128ELj64ENS_19SSD130xI2CTransportEEEE9D
 1167              		.align	1
 1168              		.p2align 2,,3
 1169              		.weak	_ZN5daisy11OledDisplayINS_13SSD130xDriverILj128ELj64ENS_19SSD130xI2CTransportEEEE9DrawPixelE
 1170              		.syntax unified
 1171              		.thumb
 1172              		.thumb_func
 1173              		.fpu fpv5-d16
 1175              	_ZN5daisy11OledDisplayINS_13SSD130xDriverILj128ELj64ENS_19SSD130xI2CTransportEEEE9DrawPixelEjjb:
 1176              	.LVL81:
 1177              	.LFB2630:
  42:lib/libDaisy/src/hid/disp/oled_display.h ****     {
 1178              		.loc 6 42 10 is_stmt 1 view -0
 1179              		.cfi_startproc
 1180              		@ args = 0, pretend = 0, frame = 0
 1181              		@ frame_needed = 0, uses_anonymous_args = 0
 1182              		@ link register save eliminated.
 1183              	.LBB649:
 1184              	.LBI649:
 352:lib/libDaisy/src/dev/oled_ssd130x.h ****     {
ARM GAS  E:\Users\Preston\Documents\AppData\Local\Temp\ccW6aDBy.s 			page 56


 1185              		.loc 7 352 10 view .LVU249
 1186              	.LBB650:
 354:lib/libDaisy/src/dev/oled_ssd130x.h ****             return;
 1187              		.loc 7 354 9 is_stmt 0 view .LVU250
 1188 0000 7F29     		cmp	r1, #127
 1189 0002 1ED8     		bhi	.L77
 1190 0004 3F2A     		cmp	r2, #63
 1191 0006 1CD8     		bhi	.L77
 356:lib/libDaisy/src/dev/oled_ssd130x.h ****             buffer_[x + (y / 8) * width] |= (1 << (y % 8));
 1192              		.loc 7 356 9 view .LVU251
 1193 0008 6BB1     		cbz	r3, .L79
 357:lib/libDaisy/src/dev/oled_ssd130x.h ****         else
 1194              		.loc 7 357 28 view .LVU252
 1195 000a D308     		lsrs	r3, r2, #3
 1196              	.LVL82:
 357:lib/libDaisy/src/dev/oled_ssd130x.h ****         else
 1197              		.loc 7 357 48 view .LVU253
 1198 000c 4FF0010C 		mov	ip, #1
 357:lib/libDaisy/src/dev/oled_ssd130x.h ****         else
 1199              		.loc 7 357 54 view .LVU254
 1200 0010 02F00702 		and	r2, r2, #7
 1201              	.LVL83:
 357:lib/libDaisy/src/dev/oled_ssd130x.h ****         else
 1202              		.loc 7 357 42 view .LVU255
 1203 0014 01EBC313 		add	r3, r1, r3, lsl #7
 357:lib/libDaisy/src/dev/oled_ssd130x.h ****         else
 1204              		.loc 7 357 48 view .LVU256
 1205 0018 0CFA02F2 		lsl	r2, ip, r2
 357:lib/libDaisy/src/dev/oled_ssd130x.h ****         else
 1206              		.loc 7 357 42 view .LVU257
 1207 001c C118     		adds	r1, r0, r3
 1208              	.LVL84:
 357:lib/libDaisy/src/dev/oled_ssd130x.h ****         else
 1209              		.loc 7 357 42 view .LVU258
 1210 001e 0B7C     		ldrb	r3, [r1, #16]	@ zero_extendqisi2
 1211 0020 1A43     		orrs	r2, r2, r3
 1212 0022 0A74     		strb	r2, [r1, #16]
 1213 0024 7047     		bx	lr
 1214              	.LVL85:
 1215              	.L79:
 1216              	.LBB651:
 1217              	.LBI651:
 352:lib/libDaisy/src/dev/oled_ssd130x.h ****     {
 1218              		.loc 7 352 10 is_stmt 1 view .LVU259
 1219              	.LBB652:
 359:lib/libDaisy/src/dev/oled_ssd130x.h ****     }
 1220              		.loc 7 359 28 is_stmt 0 view .LVU260
 1221 0026 D308     		lsrs	r3, r2, #3
 1222              	.LVL86:
 359:lib/libDaisy/src/dev/oled_ssd130x.h ****     }
 1223              		.loc 7 359 49 view .LVU261
 1224 0028 4FF0010C 		mov	ip, #1
 359:lib/libDaisy/src/dev/oled_ssd130x.h ****     }
 1225              		.loc 7 359 55 view .LVU262
 1226 002c 02F00702 		and	r2, r2, #7
 1227              	.LVL87:
 359:lib/libDaisy/src/dev/oled_ssd130x.h ****     }
ARM GAS  E:\Users\Preston\Documents\AppData\Local\Temp\ccW6aDBy.s 			page 57


 1228              		.loc 7 359 42 view .LVU263
 1229 0030 01EBC313 		add	r3, r1, r3, lsl #7
 359:lib/libDaisy/src/dev/oled_ssd130x.h ****     }
 1230              		.loc 7 359 49 view .LVU264
 1231 0034 0CFA02FC 		lsl	ip, ip, r2
 359:lib/libDaisy/src/dev/oled_ssd130x.h ****     }
 1232              		.loc 7 359 42 view .LVU265
 1233 0038 C118     		adds	r1, r0, r3
 1234              	.LVL88:
 359:lib/libDaisy/src/dev/oled_ssd130x.h ****     }
 1235              		.loc 7 359 42 view .LVU266
 1236 003a 0A7C     		ldrb	r2, [r1, #16]	@ zero_extendqisi2
 1237 003c 22EA0C02 		bic	r2, r2, ip
 1238 0040 0A74     		strb	r2, [r1, #16]
 1239              	.LVL89:
 1240              	.L77:
 359:lib/libDaisy/src/dev/oled_ssd130x.h ****     }
 1241              		.loc 7 359 42 view .LVU267
 1242              	.LBE652:
 1243              	.LBE651:
 1244              	.LBE650:
 1245              	.LBE649:
  45:lib/libDaisy/src/hid/disp/oled_display.h **** 
 1246              		.loc 6 45 5 view .LVU268
 1247 0042 7047     		bx	lr
 1248              		.cfi_endproc
 1249              	.LFE2630:
 1251              		.section	.text._ZN5daisy25OneBitGraphicsDisplayImplINS_11OledDisplayINS_13SSD130xDriverILj128ELj64
 1252              		.align	1
 1253              		.p2align 2,,3
 1254              		.weak	_ZN5daisy25OneBitGraphicsDisplayImplINS_11OledDisplayINS_13SSD130xDriverILj128ELj64ENS_19SSD
 1255              		.syntax unified
 1256              		.thumb
 1257              		.thumb_func
 1258              		.fpu fpv5-d16
 1260              	_ZN5daisy25OneBitGraphicsDisplayImplINS_11OledDisplayINS_13SSD130xDriverILj128ELj64ENS_19SSD130xI2C
 1261              	.LVL90:
 1262              	.LFB2632:
 439:lib/libDaisy/src/hid/disp/display.h **** 
 440:lib/libDaisy/src/hid/disp/display.h ****     char WriteString(const char* str, FontDef font, bool on) override
 1263              		.loc 9 440 10 is_stmt 1 view -0
 1264              		.cfi_startproc
 1265              		@ args = 4, pretend = 0, frame = 32
 1266              		@ frame_needed = 0, uses_anonymous_args = 0
 1267              		.loc 9 440 10 is_stmt 0 view .LVU270
 1268 0000 2DE9F04F 		push	{r4, r5, r6, r7, r8, r9, r10, fp, lr}
 1269              		.cfi_def_cfa_offset 36
 1270              		.cfi_offset 4, -36
 1271              		.cfi_offset 5, -32
 1272              		.cfi_offset 6, -28
 1273              		.cfi_offset 7, -24
 1274              		.cfi_offset 8, -20
 1275              		.cfi_offset 9, -16
 1276              		.cfi_offset 10, -12
 1277              		.cfi_offset 11, -8
 1278              		.cfi_offset 14, -4
 1279 0004 89B0     		sub	sp, sp, #36
ARM GAS  E:\Users\Preston\Documents\AppData\Local\Temp\ccW6aDBy.s 			page 58


 1280              		.cfi_def_cfa_offset 72
 1281              		.loc 9 440 10 view .LVU271
 1282 0006 08AC     		add	r4, sp, #32
 1283 0008 9DF84870 		ldrb	r7, [sp, #72]	@ zero_extendqisi2
 1284 000c 0191     		str	r1, [sp, #4]
 1285 000e 04E90C00 		stmdb	r4, {r2, r3}
 441:lib/libDaisy/src/hid/disp/display.h ****     {
 442:lib/libDaisy/src/hid/disp/display.h ****         // Write until null-byte
 443:lib/libDaisy/src/hid/disp/display.h ****         while(*str)
 1286              		.loc 9 443 9 is_stmt 1 view .LVU272
 1287 0012 0B78     		ldrb	r3, [r1]	@ zero_extendqisi2
 1288 0014 002B     		cmp	r3, #0
 1289 0016 00F0AB80 		beq	.L104
 1290 001a 1A46     		mov	r2, r3
 1291 001c 9DF81880 		ldrb	r8, [sp, #24]	@ zero_extendqisi2
 1292 0020 9DF81930 		ldrb	r3, [sp, #25]	@ zero_extendqisi2
 1293 0024 0646     		mov	r6, r0
 1294 0026 4546     		mov	r5, r8
 1295 0028 9046     		mov	r8, r2
 1296 002a 0393     		str	r3, [sp, #12]
 1297 002c 079B     		ldr	r3, [sp, #28]
 1298 002e 0593     		str	r3, [sp, #20]
 1299              	.LVL91:
 1300              	.L105:
 1301              	.LBB681:
 1302              	.LBI681:
 396:lib/libDaisy/src/hid/disp/display.h ****     {
 1303              		.loc 9 396 10 view .LVU273
 1304              	.LBB682:
 401:lib/libDaisy/src/hid/disp/display.h ****             return 0;
 1305              		.loc 9 401 20 is_stmt 0 view .LVU274
 1306 0030 A8F12004 		sub	r4, r8, #32
 401:lib/libDaisy/src/hid/disp/display.h ****             return 0;
 1307              		.loc 9 401 9 view .LVU275
 1308 0034 E3B2     		uxtb	r3, r4
 1309 0036 5E2B     		cmp	r3, #94
 1310 0038 00F29E80 		bhi	.L86
 405:lib/libDaisy/src/hid/disp/display.h ****            || Height() < (currentY_ + font.FontHeight))
 1311              		.loc 9 405 17 view .LVU276
 1312 003c 3368     		ldr	r3, [r6]
 1313 003e 5E4A     		ldr	r2, .L126
 1314 0040 DB68     		ldr	r3, [r3, #12]
 1315 0042 9342     		cmp	r3, r2
 1316 0044 40F09B80 		bne	.L119
 1317 0048 8020     		movs	r0, #128
 1318              	.L85:
 405:lib/libDaisy/src/hid/disp/display.h ****            || Height() < (currentY_ + font.FontHeight))
 1319              		.loc 9 405 23 view .LVU277
 1320 004a B388     		ldrh	r3, [r6, #4]
 405:lib/libDaisy/src/hid/disp/display.h ****            || Height() < (currentY_ + font.FontHeight))
 1321              		.loc 9 405 33 view .LVU278
 1322 004c 2B44     		add	r3, r3, r5
 406:lib/libDaisy/src/hid/disp/display.h ****         {
 1323              		.loc 9 406 12 view .LVU279
 1324 004e 8342     		cmp	r3, r0
 1325 0050 00F39280 		bgt	.L86
 406:lib/libDaisy/src/hid/disp/display.h ****         {
ARM GAS  E:\Users\Preston\Documents\AppData\Local\Temp\ccW6aDBy.s 			page 59


 1326              		.loc 9 406 21 view .LVU280
 1327 0054 3368     		ldr	r3, [r6]
 1328 0056 594A     		ldr	r2, .L126+4
 1329 0058 9B68     		ldr	r3, [r3, #8]
 1330 005a 9342     		cmp	r3, r2
 1331 005c 40F09280 		bne	.L120
 1332 0060 4020     		movs	r0, #64
 1333              	.L87:
 406:lib/libDaisy/src/hid/disp/display.h ****         {
 1334              		.loc 9 406 27 view .LVU281
 1335 0062 F188     		ldrh	r1, [r6, #6]
 406:lib/libDaisy/src/hid/disp/display.h ****         {
 1336              		.loc 9 406 37 view .LVU282
 1337 0064 039A     		ldr	r2, [sp, #12]
 406:lib/libDaisy/src/hid/disp/display.h ****         {
 1338              		.loc 9 406 27 view .LVU283
 1339 0066 0291     		str	r1, [sp, #8]
 406:lib/libDaisy/src/hid/disp/display.h ****         {
 1340              		.loc 9 406 37 view .LVU284
 1341 0068 8B18     		adds	r3, r1, r2
 406:lib/libDaisy/src/hid/disp/display.h ****         {
 1342              		.loc 9 406 12 view .LVU285
 1343 006a 8342     		cmp	r3, r0
 1344 006c 00F38480 		bgt	.L86
 1345              	.LVL92:
 413:lib/libDaisy/src/hid/disp/display.h ****         {
 1346              		.loc 9 413 22 is_stmt 1 view .LVU286
 1347 0070 002A     		cmp	r2, #0
 1348 0072 00F09180 		beq	.L88
 415:lib/libDaisy/src/hid/disp/display.h ****             for(j = 0; j < font.FontWidth; j++)
 1349              		.loc 9 415 37 is_stmt 0 view .LVU287
 1350 0076 02FB04F4 		mul	r4, r2, r4
 1351 007a 6FF00049 		mvn	r9, #-2147483648
 1352 007e 059B     		ldr	r3, [sp, #20]
 1353 0080 A144     		add	r9, r9, r4
 1354 0082 1444     		add	r4, r4, r2
 434:lib/libDaisy/src/hid/disp/display.h **** 
 1355              		.loc 9 434 19 view .LVU288
 1356 0084 B6F804B0 		ldrh	fp, [r6, #4]
 1357 0088 03EB4909 		add	r9, r3, r9, lsl #1
 1358 008c 023B     		subs	r3, r3, #2
 1359 008e CDF81080 		str	r8, [sp, #16]
 1360 0092 03EB4403 		add	r3, r3, r4, lsl #1
 1361 0096 0C46     		mov	r4, r1
 1362 0098 9A46     		mov	r10, r3
 1363              	.LVL93:
 1364              	.L91:
 415:lib/libDaisy/src/hid/disp/display.h ****             for(j = 0; j < font.FontWidth; j++)
 1365              		.loc 9 415 15 view .LVU289
 1366 009a 39F802CF 		ldrh	ip, [r9, #2]!
 1367              	.LVL94:
 416:lib/libDaisy/src/hid/disp/display.h ****             {
 1368              		.loc 9 416 26 is_stmt 1 view .LVU290
 1369 009e A5B3     		cbz	r5, .L96
 1370              	.LBB683:
 1371              	.LBB684:
 1372              	.LBB685:
ARM GAS  E:\Users\Preston\Documents\AppData\Local\Temp\ccW6aDBy.s 			page 60


 1373              	.LBB686:
 1374              	.LBB687:
 359:lib/libDaisy/src/dev/oled_ssd130x.h ****     }
 1375              		.loc 7 359 55 is_stmt 0 view .LVU291
 1376 00a0 04F00703 		and	r3, r4, #7
 359:lib/libDaisy/src/dev/oled_ssd130x.h ****     }
 1377              		.loc 7 359 49 view .LVU292
 1378 00a4 4FF0010E 		mov	lr, #1
 359:lib/libDaisy/src/dev/oled_ssd130x.h ****     }
 1379              		.loc 7 359 28 view .LVU293
 1380 00a8 E208     		lsrs	r2, r4, #3
 1381 00aa 5946     		mov	r1, fp
 359:lib/libDaisy/src/dev/oled_ssd130x.h ****     }
 1382              		.loc 7 359 49 view .LVU294
 1383 00ac 0EFA03FE 		lsl	lr, lr, r3
 1384 00b0 0BF11003 		add	r3, fp, #16
 359:lib/libDaisy/src/dev/oled_ssd130x.h ****     }
 1385              		.loc 7 359 42 view .LVU295
 1386 00b4 4FFA8EFE 		sxtb	lr, lr
 1387 00b8 03EBC212 		add	r2, r3, r2, lsl #7
 1388              	.LBE687:
 1389              	.LBE686:
 1390              	.LBE685:
 1391              	.LBE684:
 1392              	.LBE683:
 416:lib/libDaisy/src/hid/disp/display.h ****             {
 1393              		.loc 9 416 19 view .LVU296
 1394 00bc 0023     		movs	r3, #0
 1395              	.LBB705:
 1396              	.LBB700:
 1397              	.LBB695:
 1398              	.LBB691:
 1399              	.LBB688:
 359:lib/libDaisy/src/dev/oled_ssd130x.h ****     }
 1400              		.loc 7 359 42 view .LVU297
 1401 00be 6FEA0E08 		mvn	r8, lr
 1402 00c2 3244     		add	r2, r2, r6
 1403 00c4 0DE0     		b	.L97
 1404              	.LVL95:
 1405              	.L121:
 359:lib/libDaisy/src/dev/oled_ssd130x.h ****     }
 1406              		.loc 7 359 42 view .LVU298
 1407              	.LBE688:
 1408              	.LBE691:
 1409              	.LBE695:
 1410              	.LBE700:
 1411              	.LBE705:
 1412              	.LBB706:
 1413              	.LBI706:
  42:lib/libDaisy/src/hid/disp/oled_display.h ****     {
 1414              		.loc 6 42 10 is_stmt 1 view .LVU299
 1415              	.LBB707:
 1416              	.LBI707:
 352:lib/libDaisy/src/dev/oled_ssd130x.h ****     {
 1417              		.loc 7 352 10 view .LVU300
 1418              	.LBB708:
 354:lib/libDaisy/src/dev/oled_ssd130x.h ****             return;
ARM GAS  E:\Users\Preston\Documents\AppData\Local\Temp\ccW6aDBy.s 			page 61


 1419              		.loc 7 354 9 is_stmt 0 view .LVU301
 1420 00c6 7F29     		cmp	r1, #127
 1421 00c8 06D8     		bhi	.L93
 1422 00ca 3F2C     		cmp	r4, #63
 1423 00cc 04D8     		bhi	.L93
 357:lib/libDaisy/src/dev/oled_ssd130x.h ****         else
 1424              		.loc 7 357 42 view .LVU302
 1425 00ce 1078     		ldrb	r0, [r2]	@ zero_extendqisi2
 356:lib/libDaisy/src/dev/oled_ssd130x.h ****             buffer_[x + (y / 8) * width] |= (1 << (y % 8));
 1426              		.loc 7 356 9 view .LVU303
 1427 00d0 97B1     		cbz	r7, .L95
 1428              	.L118:
 356:lib/libDaisy/src/dev/oled_ssd130x.h ****             buffer_[x + (y / 8) * width] |= (1 << (y % 8));
 1429              		.loc 7 356 9 view .LVU304
 1430              	.LBE708:
 1431              	.LBE707:
 1432              	.LBE706:
 1433              	.LBB709:
 1434              	.LBB701:
 1435              	.LBB696:
 357:lib/libDaisy/src/dev/oled_ssd130x.h ****         else
 1436              		.loc 7 357 42 view .LVU305
 1437 00d2 4EEA0000 		orr	r0, lr, r0
 1438 00d6 1070     		strb	r0, [r2]
 1439              	.L93:
 1440              	.LBE696:
 1441              	.LBE701:
 1442              	.LBE709:
 416:lib/libDaisy/src/hid/disp/display.h ****             {
 1443              		.loc 9 416 13 is_stmt 1 view .LVU306
 1444 00d8 0133     		adds	r3, r3, #1
 1445              	.LVL96:
 416:lib/libDaisy/src/hid/disp/display.h ****             {
 1446              		.loc 9 416 26 view .LVU307
 1447 00da 0132     		adds	r2, r2, #1
 1448 00dc 0131     		adds	r1, r1, #1
 1449 00de AB42     		cmp	r3, r5
 1450 00e0 13D0     		beq	.L96
 1451              	.LVL97:
 1452              	.L97:
 418:lib/libDaisy/src/hid/disp/display.h ****                 {
 1453              		.loc 9 418 23 is_stmt 0 view .LVU308
 1454 00e2 0CFA03F0 		lsl	r0, ip, r3
 418:lib/libDaisy/src/hid/disp/display.h ****                 {
 1455              		.loc 9 418 17 view .LVU309
 1456 00e6 0004     		lsls	r0, r0, #16
 1457 00e8 EDD4     		bmi	.L121
 1458              	.LVL98:
 1459              	.LBB710:
 1460              	.LBI683:
  42:lib/libDaisy/src/hid/disp/oled_display.h ****     {
 1461              		.loc 6 42 10 is_stmt 1 view .LVU310
 1462              	.LBB702:
 1463              	.LBI684:
 352:lib/libDaisy/src/dev/oled_ssd130x.h ****     {
 1464              		.loc 7 352 10 view .LVU311
 1465              	.LBB697:
ARM GAS  E:\Users\Preston\Documents\AppData\Local\Temp\ccW6aDBy.s 			page 62


 354:lib/libDaisy/src/dev/oled_ssd130x.h ****             return;
 1466              		.loc 7 354 9 is_stmt 0 view .LVU312
 1467 00ea 7F29     		cmp	r1, #127
 1468 00ec F4D8     		bhi	.L93
 1469 00ee 3F2C     		cmp	r4, #63
 1470 00f0 F2D8     		bhi	.L93
 357:lib/libDaisy/src/dev/oled_ssd130x.h ****         else
 1471              		.loc 7 357 42 view .LVU313
 1472 00f2 1078     		ldrb	r0, [r2]	@ zero_extendqisi2
 356:lib/libDaisy/src/dev/oled_ssd130x.h ****             buffer_[x + (y / 8) * width] |= (1 << (y % 8));
 1473              		.loc 7 356 9 view .LVU314
 1474 00f4 002F     		cmp	r7, #0
 1475 00f6 ECD0     		beq	.L118
 1476              	.L95:
 1477              	.LVL99:
 1478              	.LBB692:
 1479              	.LBI686:
 352:lib/libDaisy/src/dev/oled_ssd130x.h ****     {
 1480              		.loc 7 352 10 is_stmt 1 view .LVU315
 352:lib/libDaisy/src/dev/oled_ssd130x.h ****     {
 1481              		.loc 7 352 10 is_stmt 0 view .LVU316
 1482              	.LBE692:
 1483              	.LBE697:
 1484              	.LBE702:
 1485              	.LBE710:
 416:lib/libDaisy/src/hid/disp/display.h ****             {
 1486              		.loc 9 416 13 view .LVU317
 1487 00f8 0133     		adds	r3, r3, #1
 1488              	.LVL100:
 1489              	.LBB711:
 1490              	.LBB703:
 1491              	.LBB698:
 1492              	.LBB693:
 1493              	.LBB689:
 359:lib/libDaisy/src/dev/oled_ssd130x.h ****     }
 1494              		.loc 7 359 42 view .LVU318
 1495 00fa 08EA0000 		and	r0, r8, r0
 1496              	.LBE689:
 1497              	.LBE693:
 1498              	.LBE698:
 1499              	.LBE703:
 1500              	.LBE711:
 416:lib/libDaisy/src/hid/disp/display.h ****             {
 1501              		.loc 9 416 26 view .LVU319
 1502 00fe 0132     		adds	r2, r2, #1
 1503 0100 0131     		adds	r1, r1, #1
 1504 0102 AB42     		cmp	r3, r5
 1505              	.LBB712:
 1506              	.LBB704:
 1507              	.LBB699:
 1508              	.LBB694:
 1509              	.LBB690:
 359:lib/libDaisy/src/dev/oled_ssd130x.h ****     }
 1510              		.loc 7 359 42 view .LVU320
 1511 0104 02F8010C 		strb	r0, [r2, #-1]
 359:lib/libDaisy/src/dev/oled_ssd130x.h ****     }
 1512              		.loc 7 359 42 view .LVU321
ARM GAS  E:\Users\Preston\Documents\AppData\Local\Temp\ccW6aDBy.s 			page 63


 1513              	.LBE690:
 1514              	.LBE694:
 1515              	.LBE699:
 1516              	.LBE704:
 1517              	.LBE712:
 416:lib/libDaisy/src/hid/disp/display.h ****             {
 1518              		.loc 9 416 13 is_stmt 1 view .LVU322
 1519              	.LVL101:
 416:lib/libDaisy/src/hid/disp/display.h ****             {
 1520              		.loc 9 416 26 view .LVU323
 1521 0108 EBD1     		bne	.L97
 1522              	.LVL102:
 1523              	.L96:
 413:lib/libDaisy/src/hid/disp/display.h ****         {
 1524              		.loc 9 413 9 view .LVU324
 413:lib/libDaisy/src/hid/disp/display.h ****         {
 1525              		.loc 9 413 22 view .LVU325
 1526 010a D145     		cmp	r9, r10
 1527 010c 04F10104 		add	r4, r4, #1
 1528 0110 C3D1     		bne	.L91
 1529 0112 DDF81080 		ldr	r8, [sp, #16]
 1530              	.LVL103:
 1531              	.L90:
 1532              	.LBB713:
 1533              	.LBB714:
 173:lib/libDaisy/src/hid/disp/display.h ****         currentY_ = (y >= Height()) ? Height() - 1 : y;
 1534              		.loc 9 173 33 is_stmt 0 view .LVU326
 1535 0116 3268     		ldr	r2, [r6]
 1536              	.LBE714:
 1537              	.LBE713:
 434:lib/libDaisy/src/hid/disp/display.h **** 
 1538              		.loc 9 434 18 view .LVU327
 1539 0118 0BEB0504 		add	r4, fp, r5
 1540 011c 2649     		ldr	r1, .L126
 1541              	.LBB719:
 1542              	.LBB715:
 173:lib/libDaisy/src/hid/disp/display.h ****         currentY_ = (y >= Height()) ? Height() - 1 : y;
 1543              		.loc 9 173 33 view .LVU328
 1544 011e D368     		ldr	r3, [r2, #12]
 1545              	.LBE715:
 1546              	.LBE719:
 434:lib/libDaisy/src/hid/disp/display.h **** 
 1547              		.loc 9 434 18 view .LVU329
 1548 0120 A4B2     		uxth	r4, r4
 1549              	.LVL104:
 1550              	.LBB720:
 1551              	.LBI713:
 171:lib/libDaisy/src/hid/disp/display.h ****     {
 1552              		.loc 9 171 10 is_stmt 1 view .LVU330
 1553              	.LBB716:
 173:lib/libDaisy/src/hid/disp/display.h ****         currentY_ = (y >= Height()) ? Height() - 1 : y;
 1554              		.loc 9 173 9 view .LVU331
 1555 0122 8B42     		cmp	r3, r1
 1556 0124 34D1     		bne	.L122
 173:lib/libDaisy/src/hid/disp/display.h ****         currentY_ = (y >= Height()) ? Height() - 1 : y;
 1557              		.loc 9 173 33 is_stmt 0 view .LVU332
 1558 0126 8020     		movs	r0, #128
ARM GAS  E:\Users\Preston\Documents\AppData\Local\Temp\ccW6aDBy.s 			page 64


 1559              	.L98:
 173:lib/libDaisy/src/hid/disp/display.h ****         currentY_ = (y >= Height()) ? Height() - 1 : y;
 1560              		.loc 9 173 19 view .LVU333
 1561 0128 8442     		cmp	r4, r0
 1562 012a 04D3     		bcc	.L99
 173:lib/libDaisy/src/hid/disp/display.h ****         currentY_ = (y >= Height()) ? Height() - 1 : y;
 1563              		.loc 9 173 44 view .LVU334
 1564 012c D368     		ldr	r3, [r2, #12]
 1565 012e 2249     		ldr	r1, .L126
 1566 0130 8B42     		cmp	r3, r1
 1567 0132 3AD1     		bne	.L123
 1568 0134 7F24     		movs	r4, #127
 1569              	.LVL105:
 1570              	.L99:
 174:lib/libDaisy/src/hid/disp/display.h ****     }
 1571              		.loc 9 174 34 view .LVU335
 1572 0136 9368     		ldr	r3, [r2, #8]
 1573 0138 204A     		ldr	r2, .L126+4
 173:lib/libDaisy/src/hid/disp/display.h ****         currentY_ = (y >= Height()) ? Height() - 1 : y;
 1574              		.loc 9 173 19 view .LVU336
 1575 013a B480     		strh	r4, [r6, #4]	@ movhi
 174:lib/libDaisy/src/hid/disp/display.h ****     }
 1576              		.loc 9 174 9 is_stmt 1 view .LVU337
 1577 013c 9342     		cmp	r3, r2
 1578 013e 24D1     		bne	.L124
 174:lib/libDaisy/src/hid/disp/display.h ****     }
 1579              		.loc 9 174 34 is_stmt 0 view .LVU338
 1580 0140 4020     		movs	r0, #64
 1581              	.L101:
 174:lib/libDaisy/src/hid/disp/display.h ****     }
 1582              		.loc 9 174 19 view .LVU339
 1583 0142 029B     		ldr	r3, [sp, #8]
 1584 0144 8342     		cmp	r3, r0
 1585 0146 06D3     		bcc	.L102
 174:lib/libDaisy/src/hid/disp/display.h ****     }
 1586              		.loc 9 174 46 view .LVU340
 1587 0148 3368     		ldr	r3, [r6]
 1588 014a 1C4A     		ldr	r2, .L126+4
 1589 014c 9B68     		ldr	r3, [r3, #8]
 1590 014e 9342     		cmp	r3, r2
 1591 0150 25D1     		bne	.L125
 1592 0152 3F23     		movs	r3, #63
 1593 0154 0293     		str	r3, [sp, #8]
 1594              	.LVL106:
 1595              	.L102:
 174:lib/libDaisy/src/hid/disp/display.h ****     }
 1596              		.loc 9 174 19 view .LVU341
 1597 0156 029B     		ldr	r3, [sp, #8]
 1598 0158 F380     		strh	r3, [r6, #6]	@ movhi
 1599              	.LVL107:
 1600              	.L84:
 174:lib/libDaisy/src/hid/disp/display.h ****     }
 1601              		.loc 9 174 19 view .LVU342
 1602              	.LBE716:
 1603              	.LBE720:
 1604              	.LBE682:
 1605              	.LBE681:
ARM GAS  E:\Users\Preston\Documents\AppData\Local\Temp\ccW6aDBy.s 			page 65


 444:lib/libDaisy/src/hid/disp/display.h ****         {
 445:lib/libDaisy/src/hid/disp/display.h ****             if(((ChildType*)(this))->ChildType::WriteChar(*str, font, on)
 446:lib/libDaisy/src/hid/disp/display.h ****                != *str)
 1606              		.loc 9 446 16 view .LVU343
 1607 015a 019B     		ldr	r3, [sp, #4]
 1608 015c 1878     		ldrb	r0, [r3]	@ zero_extendqisi2
 445:lib/libDaisy/src/hid/disp/display.h ****                != *str)
 1609              		.loc 9 445 13 view .LVU344
 1610 015e 4045     		cmp	r0, r8
 1611 0160 07D1     		bne	.L82
 1612              	.LVL108:
 443:lib/libDaisy/src/hid/disp/display.h ****         {
 1613              		.loc 9 443 9 is_stmt 1 view .LVU345
 1614 0162 13F8018F 		ldrb	r8, [r3, #1]!	@ zero_extendqisi2
 1615              	.LVL109:
 443:lib/libDaisy/src/hid/disp/display.h ****         {
 1616              		.loc 9 443 9 is_stmt 0 view .LVU346
 1617 0166 0193     		str	r3, [sp, #4]
 1618 0168 B8F1000F 		cmp	r8, #0
 1619 016c 7FF460AF 		bne	.L105
 1620              	.LVL110:
 1621              	.L104:
 1622              	.LBB725:
 1623              	.LBB723:
 402:lib/libDaisy/src/hid/disp/display.h **** 
 1624              		.loc 9 402 20 view .LVU347
 1625 0170 0020     		movs	r0, #0
 1626              	.L82:
 1627              	.LBE723:
 1628              	.LBE725:
 447:lib/libDaisy/src/hid/disp/display.h ****             {
 448:lib/libDaisy/src/hid/disp/display.h ****                 // Char could not be written
 449:lib/libDaisy/src/hid/disp/display.h ****                 return *str;
 450:lib/libDaisy/src/hid/disp/display.h ****             }
 451:lib/libDaisy/src/hid/disp/display.h **** 
 452:lib/libDaisy/src/hid/disp/display.h ****             // Next char
 453:lib/libDaisy/src/hid/disp/display.h ****             str++;
 454:lib/libDaisy/src/hid/disp/display.h ****         }
 455:lib/libDaisy/src/hid/disp/display.h **** 
 456:lib/libDaisy/src/hid/disp/display.h ****         // Everything ok
 457:lib/libDaisy/src/hid/disp/display.h ****         return *str;
 458:lib/libDaisy/src/hid/disp/display.h ****     }
 1629              		.loc 9 458 5 view .LVU348
 1630 0172 09B0     		add	sp, sp, #36
 1631              		.cfi_remember_state
 1632              		.cfi_def_cfa_offset 36
 1633              		@ sp needed
 1634 0174 BDE8F08F 		pop	{r4, r5, r6, r7, r8, r9, r10, fp, pc}
 1635              	.LVL111:
 1636              	.L86:
 1637              		.cfi_restore_state
 1638              	.LBB726:
 1639              	.LBB724:
 402:lib/libDaisy/src/hid/disp/display.h **** 
 1640              		.loc 9 402 20 view .LVU349
 1641 0178 4FF00008 		mov	r8, #0
 1642              	.LVL112:
ARM GAS  E:\Users\Preston\Documents\AppData\Local\Temp\ccW6aDBy.s 			page 66


 402:lib/libDaisy/src/hid/disp/display.h **** 
 1643              		.loc 9 402 20 view .LVU350
 1644 017c EDE7     		b	.L84
 1645              	.LVL113:
 1646              	.L119:
 405:lib/libDaisy/src/hid/disp/display.h ****            || Height() < (currentY_ + font.FontHeight))
 1647              		.loc 9 405 17 view .LVU351
 1648 017e 3046     		mov	r0, r6
 1649 0180 9847     		blx	r3
 1650              	.LVL114:
 1651 0182 62E7     		b	.L85
 1652              	.L120:
 406:lib/libDaisy/src/hid/disp/display.h ****         {
 1653              		.loc 9 406 21 view .LVU352
 1654 0184 3046     		mov	r0, r6
 1655 0186 9847     		blx	r3
 1656              	.LVL115:
 1657 0188 6BE7     		b	.L87
 1658              	.LVL116:
 1659              	.L124:
 1660              	.LBB721:
 1661              	.LBB717:
 174:lib/libDaisy/src/hid/disp/display.h ****     }
 1662              		.loc 9 174 33 view .LVU353
 1663 018a 3046     		mov	r0, r6
 1664 018c 9847     		blx	r3
 1665              	.LVL117:
 1666 018e D8E7     		b	.L101
 1667              	.LVL118:
 1668              	.L122:
 173:lib/libDaisy/src/hid/disp/display.h ****         currentY_ = (y >= Height()) ? Height() - 1 : y;
 1669              		.loc 9 173 32 view .LVU354
 1670 0190 3046     		mov	r0, r6
 1671 0192 9847     		blx	r3
 1672              	.LVL119:
 173:lib/libDaisy/src/hid/disp/display.h ****         currentY_ = (y >= Height()) ? Height() - 1 : y;
 1673              		.loc 9 173 44 view .LVU355
 1674 0194 3268     		ldr	r2, [r6]
 1675 0196 C7E7     		b	.L98
 1676              	.LVL120:
 1677              	.L88:
 173:lib/libDaisy/src/hid/disp/display.h ****         currentY_ = (y >= Height()) ? Height() - 1 : y;
 1678              		.loc 9 173 44 view .LVU356
 1679              	.LBE717:
 1680              	.LBE721:
 434:lib/libDaisy/src/hid/disp/display.h **** 
 1681              		.loc 9 434 19 view .LVU357
 1682 0198 B6F804B0 		ldrh	fp, [r6, #4]
 1683 019c BBE7     		b	.L90
 1684              	.LVL121:
 1685              	.L125:
 1686              	.LBB722:
 1687              	.LBB718:
 174:lib/libDaisy/src/hid/disp/display.h ****     }
 1688              		.loc 9 174 45 view .LVU358
 1689 019e 3046     		mov	r0, r6
 1690 01a0 9847     		blx	r3
ARM GAS  E:\Users\Preston\Documents\AppData\Local\Temp\ccW6aDBy.s 			page 67


 1691              	.LVL122:
 174:lib/libDaisy/src/hid/disp/display.h ****     }
 1692              		.loc 9 174 19 view .LVU359
 1693 01a2 0138     		subs	r0, r0, #1
 1694 01a4 83B2     		uxth	r3, r0
 1695 01a6 0293     		str	r3, [sp, #8]
 1696              	.LVL123:
 174:lib/libDaisy/src/hid/disp/display.h ****     }
 1697              		.loc 9 174 19 view .LVU360
 1698 01a8 D5E7     		b	.L102
 1699              	.LVL124:
 1700              	.L123:
 173:lib/libDaisy/src/hid/disp/display.h ****         currentY_ = (y >= Height()) ? Height() - 1 : y;
 1701              		.loc 9 173 43 view .LVU361
 1702 01aa 3046     		mov	r0, r6
 1703 01ac 9847     		blx	r3
 1704              	.LVL125:
 173:lib/libDaisy/src/hid/disp/display.h ****         currentY_ = (y >= Height()) ? Height() - 1 : y;
 1705              		.loc 9 173 19 view .LVU362
 1706 01ae 0138     		subs	r0, r0, #1
 174:lib/libDaisy/src/hid/disp/display.h ****     }
 1707              		.loc 9 174 34 view .LVU363
 1708 01b0 3268     		ldr	r2, [r6]
 173:lib/libDaisy/src/hid/disp/display.h ****         currentY_ = (y >= Height()) ? Height() - 1 : y;
 1709              		.loc 9 173 19 view .LVU364
 1710 01b2 84B2     		uxth	r4, r0
 1711              	.LVL126:
 173:lib/libDaisy/src/hid/disp/display.h ****         currentY_ = (y >= Height()) ? Height() - 1 : y;
 1712              		.loc 9 173 19 view .LVU365
 1713 01b4 BFE7     		b	.L99
 1714              	.L127:
 1715 01b6 00BF     		.align	2
 1716              	.L126:
 1717 01b8 00000000 		.word	_ZNK5daisy11OledDisplayINS_13SSD130xDriverILj128ELj64ENS_19SSD130xI2CTransportEEEE5WidthEv
 1718 01bc 00000000 		.word	_ZNK5daisy11OledDisplayINS_13SSD130xDriverILj128ELj64ENS_19SSD130xI2CTransportEEEE6HeightEv
 1719              	.LBE718:
 1720              	.LBE722:
 1721              	.LBE724:
 1722              	.LBE726:
 1723              		.cfi_endproc
 1724              	.LFE2632:
 1726              		.section	.text._ZN5daisy25OneBitGraphicsDisplayImplINS_11OledDisplayINS_13SSD130xDriverILj128ELj64
 1727              		.align	1
 1728              		.p2align 2,,3
 1729              		.weak	_ZN5daisy25OneBitGraphicsDisplayImplINS_11OledDisplayINS_13SSD130xDriverILj128ELj64ENS_19SSD
 1730              		.syntax unified
 1731              		.thumb
 1732              		.thumb_func
 1733              		.fpu fpv5-d16
 1735              	_ZN5daisy25OneBitGraphicsDisplayImplINS_11OledDisplayINS_13SSD130xDriverILj128ELj64ENS_19SSD130xI2C
 1736              	.LVL127:
 1737              	.LFB2687:
 221:lib/libDaisy/src/hid/disp/display.h ****                   uint_fast8_t y1,
 1738              		.loc 9 221 10 is_stmt 1 view -0
 1739              		.cfi_startproc
 1740              		@ args = 8, pretend = 0, frame = 8
 1741              		@ frame_needed = 0, uses_anonymous_args = 0
ARM GAS  E:\Users\Preston\Documents\AppData\Local\Temp\ccW6aDBy.s 			page 68


 221:lib/libDaisy/src/hid/disp/display.h ****                   uint_fast8_t y1,
 1742              		.loc 9 221 10 is_stmt 0 view .LVU367
 1743 0000 2DE9F04F 		push	{r4, r5, r6, r7, r8, r9, r10, fp, lr}
 1744              		.cfi_def_cfa_offset 36
 1745              		.cfi_offset 4, -36
 1746              		.cfi_offset 5, -32
 1747              		.cfi_offset 6, -28
 1748              		.cfi_offset 7, -24
 1749              		.cfi_offset 8, -20
 1750              		.cfi_offset 9, -16
 1751              		.cfi_offset 10, -12
 1752              		.cfi_offset 11, -8
 1753              		.cfi_offset 14, -4
 1754 0004 83B0     		sub	sp, sp, #12
 1755              		.cfi_def_cfa_offset 48
 227:lib/libDaisy/src/hid/disp/display.h ****         int_fast16_t deltaY = abs((int_fast16_t)y2 - (int_fast16_t)y1);
 1756              		.loc 9 227 52 view .LVU368
 1757 0006 5C1A     		subs	r4, r3, r1
 221:lib/libDaisy/src/hid/disp/display.h ****                   uint_fast8_t y1,
 1758              		.loc 9 221 10 view .LVU369
 1759 0008 0C9E     		ldr	r6, [sp, #48]
 227:lib/libDaisy/src/hid/disp/display.h ****         int_fast16_t deltaY = abs((int_fast16_t)y2 - (int_fast16_t)y1);
 1760              		.loc 9 227 22 view .LVU370
 1761 000a 002C     		cmp	r4, #0
 221:lib/libDaisy/src/hid/disp/display.h ****                   uint_fast8_t y1,
 1762              		.loc 9 221 10 view .LVU371
 1763 000c 9DF83490 		ldrb	r9, [sp, #52]	@ zero_extendqisi2
 228:lib/libDaisy/src/hid/disp/display.h ****         int_fast16_t signX  = ((x1 < x2) ? 1 : -1);
 1764              		.loc 9 228 52 view .LVU372
 1765 0010 A6EB0208 		sub	r8, r6, r2
 227:lib/libDaisy/src/hid/disp/display.h ****         int_fast16_t deltaY = abs((int_fast16_t)y2 - (int_fast16_t)y1);
 1766              		.loc 9 227 22 view .LVU373
 1767 0014 B8BF     		it	lt
 1768 0016 6442     		rsblt	r4, r4, #0
 1769              	.LVL128:
 228:lib/libDaisy/src/hid/disp/display.h ****         int_fast16_t signX  = ((x1 < x2) ? 1 : -1);
 1770              		.loc 9 228 22 view .LVU374
 1771 0018 B8F1000F 		cmp	r8, #0
 1772 001c B8BF     		it	lt
 1773 001e C8F10008 		rsblt	r8, r8, #0
 1774              	.LVL129:
 229:lib/libDaisy/src/hid/disp/display.h ****         int_fast16_t signY  = ((y1 < y2) ? 1 : -1);
 1775              		.loc 9 229 42 view .LVU375
 1776 0022 8B42     		cmp	r3, r1
 1777 0024 8CBF     		ite	hi
 1778 0026 4FF0010A 		movhi	r10, #1
 1779 002a 4FF0FF3A 		movls	r10, #-1
 1780              	.LVL130:
 230:lib/libDaisy/src/hid/disp/display.h ****         int_fast16_t error  = deltaX - deltaY;
 1781              		.loc 9 230 42 view .LVU376
 1782 002e 9642     		cmp	r6, r2
 231:lib/libDaisy/src/hid/disp/display.h ****         int_fast16_t error2;
 1783              		.loc 9 231 22 view .LVU377
 1784 0030 A4EB080C 		sub	ip, r4, r8
 230:lib/libDaisy/src/hid/disp/display.h ****         int_fast16_t error  = deltaX - deltaY;
 1785              		.loc 9 230 42 view .LVU378
 1786 0034 51D8     		bhi	.L130
ARM GAS  E:\Users\Preston\Documents\AppData\Local\Temp\ccW6aDBy.s 			page 69


 1787              	.LVL131:
 1788              	.LBB743:
 1789              	.LBI743:
  42:lib/libDaisy/src/hid/disp/oled_display.h ****     {
 1790              		.loc 6 42 10 is_stmt 1 discriminator 4 view .LVU379
 1791              	.LBB744:
 1792              	.LBI744:
 352:lib/libDaisy/src/dev/oled_ssd130x.h ****     {
 1793              		.loc 7 352 10 discriminator 4 view .LVU380
 1794              	.LBE744:
 1795              	.LBE743:
 230:lib/libDaisy/src/hid/disp/display.h ****         int_fast16_t error  = deltaX - deltaY;
 1796              		.loc 9 230 42 is_stmt 0 discriminator 4 view .LVU381
 1797 0036 4FF0FF35 		mov	r5, #-1
 1798              	.LBB760:
 1799              	.LBB754:
 1800              	.LBB745:
 354:lib/libDaisy/src/dev/oled_ssd130x.h ****             return;
 1801              		.loc 7 354 9 discriminator 4 view .LVU382
 1802 003a 7F2B     		cmp	r3, #127
 1803              	.LBE745:
 1804              	.LBE754:
 1805              	.LBE760:
 230:lib/libDaisy/src/hid/disp/display.h ****         int_fast16_t error  = deltaX - deltaY;
 1806              		.loc 9 230 42 discriminator 4 view .LVU383
 1807 003c 0195     		str	r5, [sp, #4]
 1808              	.LBB761:
 1809              	.LBB755:
 1810              	.LBB750:
 354:lib/libDaisy/src/dev/oled_ssd130x.h ****             return;
 1811              		.loc 7 354 9 discriminator 4 view .LVU384
 1812 003e 12D8     		bhi	.L131
 1813 0040 3F2E     		cmp	r6, #63
 1814 0042 10D8     		bhi	.L131
 1815              	.LVL132:
 1816              	.L142:
 357:lib/libDaisy/src/dev/oled_ssd130x.h ****         else
 1817              		.loc 7 357 28 view .LVU385
 1818 0044 F508     		lsrs	r5, r6, #3
 357:lib/libDaisy/src/dev/oled_ssd130x.h ****         else
 1819              		.loc 7 357 54 view .LVU386
 1820 0046 06F0070E 		and	lr, r6, #7
 357:lib/libDaisy/src/dev/oled_ssd130x.h ****         else
 1821              		.loc 7 357 48 view .LVU387
 1822 004a 0127     		movs	r7, #1
 357:lib/libDaisy/src/dev/oled_ssd130x.h ****         else
 1823              		.loc 7 357 42 view .LVU388
 1824 004c 03EBC515 		add	r5, r3, r5, lsl #7
 1825 0050 0544     		add	r5, r5, r0
 356:lib/libDaisy/src/dev/oled_ssd130x.h ****             buffer_[x + (y / 8) * width] |= (1 << (y % 8));
 1826              		.loc 7 356 9 view .LVU389
 1827 0052 B9F1000F 		cmp	r9, #0
 1828 0056 47D0     		beq	.L132
 357:lib/libDaisy/src/dev/oled_ssd130x.h ****         else
 1829              		.loc 7 357 48 view .LVU390
 1830 0058 07FA0EF7 		lsl	r7, r7, lr
 357:lib/libDaisy/src/dev/oled_ssd130x.h ****         else
ARM GAS  E:\Users\Preston\Documents\AppData\Local\Temp\ccW6aDBy.s 			page 70


 1831              		.loc 7 357 42 view .LVU391
 1832 005c 95F810E0 		ldrb	lr, [r5, #16]	@ zero_extendqisi2
 1833 0060 47EA0E07 		orr	r7, r7, lr
 1834 0064 2F74     		strb	r7, [r5, #16]
 1835              	.LVL133:
 1836              	.L131:
 357:lib/libDaisy/src/dev/oled_ssd130x.h ****         else
 1837              		.loc 7 357 42 view .LVU392
 1838              	.LBE750:
 1839              	.LBE755:
 1840              	.LBE761:
 239:lib/libDaisy/src/hid/disp/display.h ****         {
 1841              		.loc 9 239 26 is_stmt 1 view .LVU393
 1842 0066 9642     		cmp	r6, r2
 1843 0068 01D1     		bne	.L135
 1844              	.L154:
 239:lib/libDaisy/src/hid/disp/display.h ****         {
 1845              		.loc 9 239 26 is_stmt 0 view .LVU394
 1846 006a 8B42     		cmp	r3, r1
 1847 006c 29D0     		beq	.L128
 1848              	.L135:
 1849              	.LVL134:
 243:lib/libDaisy/src/hid/disp/display.h ****             {
 1850              		.loc 9 243 23 view .LVU395
 1851 006e C8F10007 		rsb	r7, r8, #0
 1852              	.L137:
 1853              	.LVL135:
 1854              	.LBB762:
 1855              	.LBI762:
  42:lib/libDaisy/src/hid/disp/oled_display.h ****     {
 1856              		.loc 6 42 10 is_stmt 1 view .LVU396
 1857              	.LBB763:
 1858              	.LBI763:
 352:lib/libDaisy/src/dev/oled_ssd130x.h ****     {
 1859              		.loc 7 352 10 view .LVU397
 1860              	.LBB764:
 354:lib/libDaisy/src/dev/oled_ssd130x.h ****             return;
 1861              		.loc 7 354 9 is_stmt 0 view .LVU398
 1862 0072 7F29     		cmp	r1, #127
 1863 0074 14D8     		bhi	.L138
 1864 0076 3F2A     		cmp	r2, #63
 1865 0078 12D8     		bhi	.L138
 357:lib/libDaisy/src/dev/oled_ssd130x.h ****         else
 1866              		.loc 7 357 28 view .LVU399
 1867 007a D508     		lsrs	r5, r2, #3
 357:lib/libDaisy/src/dev/oled_ssd130x.h ****         else
 1868              		.loc 7 357 54 view .LVU400
 1869 007c 02F0070B 		and	fp, r2, #7
 357:lib/libDaisy/src/dev/oled_ssd130x.h ****         else
 1870              		.loc 7 357 48 view .LVU401
 1871 0080 4FF0010E 		mov	lr, #1
 357:lib/libDaisy/src/dev/oled_ssd130x.h ****         else
 1872              		.loc 7 357 42 view .LVU402
 1873 0084 01EBC515 		add	r5, r1, r5, lsl #7
 1874 0088 0544     		add	r5, r5, r0
 356:lib/libDaisy/src/dev/oled_ssd130x.h ****             buffer_[x + (y / 8) * width] |= (1 << (y % 8));
 1875              		.loc 7 356 9 view .LVU403
ARM GAS  E:\Users\Preston\Documents\AppData\Local\Temp\ccW6aDBy.s 			page 71


 1876 008a B9F1000F 		cmp	r9, #0
 1877 008e 1BD0     		beq	.L139
 357:lib/libDaisy/src/dev/oled_ssd130x.h ****         else
 1878              		.loc 7 357 48 view .LVU404
 1879 0090 0EFA0BFE 		lsl	lr, lr, fp
 357:lib/libDaisy/src/dev/oled_ssd130x.h ****         else
 1880              		.loc 7 357 42 view .LVU405
 1881 0094 95F810B0 		ldrb	fp, [r5, #16]	@ zero_extendqisi2
 1882 0098 4EEA0B0E 		orr	lr, lr, fp
 1883 009c 85F810E0 		strb	lr, [r5, #16]
 1884              	.L138:
 1885              	.LVL136:
 357:lib/libDaisy/src/dev/oled_ssd130x.h ****         else
 1886              		.loc 7 357 42 view .LVU406
 1887              	.LBE764:
 1888              	.LBE763:
 1889              	.LBE762:
 243:lib/libDaisy/src/hid/disp/display.h ****             {
 1890              		.loc 9 243 13 view .LVU407
 1891 00a0 B7EB4C0F 		cmp	r7, ip, lsl #1
 242:lib/libDaisy/src/hid/disp/display.h ****             if(error2 > -deltaY)
 1892              		.loc 9 242 20 view .LVU408
 1893 00a4 4FEA4C05 		lsl	r5, ip, #1
 1894              	.LVL137:
 243:lib/libDaisy/src/hid/disp/display.h ****             {
 1895              		.loc 9 243 13 view .LVU409
 1896 00a8 02DA     		bge	.L140
 245:lib/libDaisy/src/hid/disp/display.h ****                 x1 += signX;
 1897              		.loc 9 245 23 view .LVU410
 1898 00aa ACEB080C 		sub	ip, ip, r8
 1899              	.LVL138:
 246:lib/libDaisy/src/hid/disp/display.h ****             }
 1900              		.loc 9 246 20 view .LVU411
 1901 00ae 5144     		add	r1, r1, r10
 1902              	.LVL139:
 1903              	.L140:
 249:lib/libDaisy/src/hid/disp/display.h ****             {
 1904              		.loc 9 249 13 view .LVU412
 1905 00b0 AC42     		cmp	r4, r5
 1906 00b2 02DD     		ble	.L141
 252:lib/libDaisy/src/hid/disp/display.h ****             }
 1907              		.loc 9 252 20 view .LVU413
 1908 00b4 019D     		ldr	r5, [sp, #4]
 1909              	.LVL140:
 251:lib/libDaisy/src/hid/disp/display.h ****                 y1 += signY;
 1910              		.loc 9 251 23 view .LVU414
 1911 00b6 A444     		add	ip, ip, r4
 1912              	.LVL141:
 252:lib/libDaisy/src/hid/disp/display.h ****             }
 1913              		.loc 9 252 20 view .LVU415
 1914 00b8 2A44     		add	r2, r2, r5
 1915              	.LVL142:
 1916              	.L141:
 239:lib/libDaisy/src/hid/disp/display.h ****         {
 1917              		.loc 9 239 26 is_stmt 1 view .LVU416
 1918 00ba 9942     		cmp	r1, r3
 1919 00bc D9D1     		bne	.L137
ARM GAS  E:\Users\Preston\Documents\AppData\Local\Temp\ccW6aDBy.s 			page 72


 239:lib/libDaisy/src/hid/disp/display.h ****         {
 1920              		.loc 9 239 26 is_stmt 0 view .LVU417
 1921 00be 9642     		cmp	r6, r2
 1922 00c0 D7D1     		bne	.L137
 1923              	.L128:
 255:lib/libDaisy/src/hid/disp/display.h **** 
 1924              		.loc 9 255 5 view .LVU418
 1925 00c2 03B0     		add	sp, sp, #12
 1926              		.cfi_remember_state
 1927              		.cfi_def_cfa_offset 36
 1928              		@ sp needed
 1929 00c4 BDE8F08F 		pop	{r4, r5, r6, r7, r8, r9, r10, fp, pc}
 1930              	.LVL143:
 1931              	.L139:
 1932              		.cfi_restore_state
 1933              	.LBB769:
 1934              	.LBB768:
 1935              	.LBB767:
 1936              	.LBB765:
 1937              	.LBI765:
 352:lib/libDaisy/src/dev/oled_ssd130x.h ****     {
 1938              		.loc 7 352 10 is_stmt 1 view .LVU419
 1939              	.LBB766:
 359:lib/libDaisy/src/dev/oled_ssd130x.h ****     }
 1940              		.loc 7 359 49 is_stmt 0 view .LVU420
 1941 00c8 0EFA0BFB 		lsl	fp, lr, fp
 359:lib/libDaisy/src/dev/oled_ssd130x.h ****     }
 1942              		.loc 7 359 42 view .LVU421
 1943 00cc 95F810E0 		ldrb	lr, [r5, #16]	@ zero_extendqisi2
 1944 00d0 2EEA0B0E 		bic	lr, lr, fp
 1945 00d4 85F810E0 		strb	lr, [r5, #16]
 1946 00d8 E2E7     		b	.L138
 1947              	.LVL144:
 1948              	.L130:
 359:lib/libDaisy/src/dev/oled_ssd130x.h ****     }
 1949              		.loc 7 359 42 view .LVU422
 1950              	.LBE766:
 1951              	.LBE765:
 1952              	.LBE767:
 1953              	.LBE768:
 1954              	.LBE769:
 1955              	.LBB770:
  42:lib/libDaisy/src/hid/disp/oled_display.h ****     {
 1956              		.loc 6 42 10 is_stmt 1 view .LVU423
 1957              	.LBB756:
 352:lib/libDaisy/src/dev/oled_ssd130x.h ****     {
 1958              		.loc 7 352 10 view .LVU424
 1959              	.LBE756:
 1960              	.LBE770:
 230:lib/libDaisy/src/hid/disp/display.h ****         int_fast16_t error  = deltaX - deltaY;
 1961              		.loc 9 230 42 is_stmt 0 view .LVU425
 1962 00da 0125     		movs	r5, #1
 1963              	.LBB771:
 1964              	.LBB757:
 1965              	.LBB751:
 354:lib/libDaisy/src/dev/oled_ssd130x.h ****             return;
 1966              		.loc 7 354 9 view .LVU426
ARM GAS  E:\Users\Preston\Documents\AppData\Local\Temp\ccW6aDBy.s 			page 73


 1967 00dc 7F2B     		cmp	r3, #127
 1968              	.LBE751:
 1969              	.LBE757:
 1970              	.LBE771:
 230:lib/libDaisy/src/hid/disp/display.h ****         int_fast16_t error  = deltaX - deltaY;
 1971              		.loc 9 230 42 view .LVU427
 1972 00de 0195     		str	r5, [sp, #4]
 1973              	.LBB772:
 1974              	.LBB758:
 1975              	.LBB752:
 354:lib/libDaisy/src/dev/oled_ssd130x.h ****             return;
 1976              		.loc 7 354 9 view .LVU428
 1977 00e0 C5D8     		bhi	.L135
 1978 00e2 3F2E     		cmp	r6, #63
 1979 00e4 AED9     		bls	.L142
 1980 00e6 C2E7     		b	.L135
 1981              	.LVL145:
 1982              	.L132:
 1983              	.LBB746:
 1984              	.LBI746:
 352:lib/libDaisy/src/dev/oled_ssd130x.h ****     {
 1985              		.loc 7 352 10 is_stmt 1 view .LVU429
 1986              	.LBB747:
 359:lib/libDaisy/src/dev/oled_ssd130x.h ****     }
 1987              		.loc 7 359 49 is_stmt 0 view .LVU430
 1988 00e8 07FA0EFE 		lsl	lr, r7, lr
 359:lib/libDaisy/src/dev/oled_ssd130x.h ****     }
 1989              		.loc 7 359 42 view .LVU431
 1990 00ec 2F7C     		ldrb	r7, [r5, #16]	@ zero_extendqisi2
 1991              	.LBE747:
 1992              	.LBE746:
 1993              	.LBE752:
 1994              	.LBE758:
 1995              	.LBE772:
 239:lib/libDaisy/src/hid/disp/display.h ****         {
 1996              		.loc 9 239 26 view .LVU432
 1997 00ee 9642     		cmp	r6, r2
 1998              	.LBB773:
 1999              	.LBB759:
 2000              	.LBB753:
 2001              	.LBB749:
 2002              	.LBB748:
 359:lib/libDaisy/src/dev/oled_ssd130x.h ****     }
 2003              		.loc 7 359 42 view .LVU433
 2004 00f0 27EA0E07 		bic	r7, r7, lr
 2005 00f4 2F74     		strb	r7, [r5, #16]
 2006              	.LVL146:
 359:lib/libDaisy/src/dev/oled_ssd130x.h ****     }
 2007              		.loc 7 359 42 view .LVU434
 2008              	.LBE748:
 2009              	.LBE749:
 2010              	.LBE753:
 2011              	.LBE759:
 2012              	.LBE773:
 239:lib/libDaisy/src/hid/disp/display.h ****         {
 2013              		.loc 9 239 26 is_stmt 1 view .LVU435
 2014 00f6 B8D0     		beq	.L154
ARM GAS  E:\Users\Preston\Documents\AppData\Local\Temp\ccW6aDBy.s 			page 74


 2015 00f8 B9E7     		b	.L135
 2016              		.cfi_endproc
 2017              	.LFE2687:
 2019 00fa 00BF     		.section	.text._ZN5daisy25OneBitGraphicsDisplayImplINS_11OledDisplayINS_13SSD130xDriverILj128ELj64
 2020              		.align	1
 2021              		.p2align 2,,3
 2022              		.weak	_ZN5daisy25OneBitGraphicsDisplayImplINS_11OledDisplayINS_13SSD130xDriverILj128ELj64ENS_19SSD
 2023              		.syntax unified
 2024              		.thumb
 2025              		.thumb_func
 2026              		.fpu fpv5-d16
 2028              	_ZN5daisy25OneBitGraphicsDisplayImplINS_11OledDisplayINS_13SSD130xDriverILj128ELj64ENS_19SSD130xI2C
 2029              	.LVL147:
 2030              	.LFB2689:
 283:lib/libDaisy/src/hid/disp/display.h ****                  uint_fast8_t y,
 2031              		.loc 9 283 10 view -0
 2032              		.cfi_startproc
 2033              		@ args = 12, pretend = 0, frame = 8
 2034              		@ frame_needed = 0, uses_anonymous_args = 0
 283:lib/libDaisy/src/hid/disp/display.h ****                  uint_fast8_t y,
 2035              		.loc 9 283 10 is_stmt 0 view .LVU437
 2036 0000 2DE9F04F 		push	{r4, r5, r6, r7, r8, r9, r10, fp, lr}
 2037              		.cfi_def_cfa_offset 36
 2038              		.cfi_offset 4, -36
 2039              		.cfi_offset 5, -32
 2040              		.cfi_offset 6, -28
 2041              		.cfi_offset 7, -24
 2042              		.cfi_offset 8, -20
 2043              		.cfi_offset 9, -16
 2044              		.cfi_offset 10, -12
 2045              		.cfi_offset 11, -8
 2046              		.cfi_offset 14, -4
 2047 0004 2DED068B 		vpush.64	{d8, d9, d10}
 2048              		.cfi_def_cfa_offset 60
 2049              		.cfi_offset 80, -60
 2050              		.cfi_offset 81, -56
 2051              		.cfi_offset 82, -52
 2052              		.cfi_offset 83, -48
 2053              		.cfi_offset 84, -44
 2054              		.cfi_offset 85, -40
 2055 0008 83B0     		sub	sp, sp, #12
 2056              		.cfi_def_cfa_offset 72
 283:lib/libDaisy/src/hid/disp/display.h ****                  uint_fast8_t y,
 2057              		.loc 9 283 10 view .LVU438
 2058 000a 1F46     		mov	r7, r3
 2059 000c 8046     		mov	r8, r0
 2060 000e 0D46     		mov	r5, r1
 2061 0010 9DF85030 		ldrb	r3, [sp, #80]	@ zero_extendqisi2
 2062              	.LVL148:
 283:lib/libDaisy/src/hid/disp/display.h ****                  uint_fast8_t y,
 2063              		.loc 9 283 10 view .LVU439
 2064 0014 1646     		mov	r6, r2
 2065 0016 0193     		str	r3, [sp, #4]
 306:lib/libDaisy/src/hid/disp/display.h ****         {
 2066              		.loc 9 306 9 view .LVU440
 2067 0018 139B     		ldr	r3, [sp, #76]
 2068 001a 002B     		cmp	r3, #0
ARM GAS  E:\Users\Preston\Documents\AppData\Local\Temp\ccW6aDBy.s 			page 75


 2069 001c C0F22182 		blt	.L156
 313:lib/libDaisy/src/hid/disp/display.h **** 
 2070              		.loc 9 313 27 view .LVU441
 2071 0020 129A     		ldr	r2, [sp, #72]
 2072              	.LVL149:
 313:lib/libDaisy/src/hid/disp/display.h **** 
 2073              		.loc 9 313 27 view .LVU442
 2074 0022 1344     		add	r3, r3, r2
 2075 0024 06EE103A 		vmov	s12, r3	@ int
 2076              	.LVL150:
 2077              	.L157:
 312:lib/libDaisy/src/hid/disp/display.h ****         end_angle_rad   = deg2rad(start_angle + sweep);
 2078              		.loc 9 312 27 view .LVU443
 2079 0028 DDED127A 		vldr.32	s15, [sp, #72]	@ int
 313:lib/libDaisy/src/hid/disp/display.h **** 
 2080              		.loc 9 313 27 view .LVU444
 2081 002c B8EEC66B 		vcvt.f64.s32	d6, s12
 312:lib/libDaisy/src/hid/disp/display.h ****         end_angle_rad   = deg2rad(start_angle + sweep);
 2082              		.loc 9 312 27 view .LVU445
 2083 0030 9FEDCD4B 		vldr.64	d4, .L232
 2084 0034 B8EEE77B 		vcvt.f64.s32	d7, s15
 2085 0038 9FEDCD5B 		vldr.64	d5, .L232+8
 2086 003c 27EE047B 		vmul.f64	d7, d7, d4
 313:lib/libDaisy/src/hid/disp/display.h **** 
 2087              		.loc 9 313 27 view .LVU446
 2088 0040 26EE046B 		vmul.f64	d6, d6, d4
 312:lib/libDaisy/src/hid/disp/display.h ****         end_angle_rad   = deg2rad(start_angle + sweep);
 2089              		.loc 9 312 27 view .LVU447
 2090 0044 87EE050B 		vdiv.f64	d0, d7, d5
 313:lib/libDaisy/src/hid/disp/display.h **** 
 2091              		.loc 9 313 27 view .LVU448
 2092 0048 86EE05AB 		vdiv.f64	d10, d6, d5
 312:lib/libDaisy/src/hid/disp/display.h ****         end_angle_rad   = deg2rad(start_angle + sweep);
 2093              		.loc 9 312 25 view .LVU449
 2094 004c F7EEC08B 		vcvt.f32.f64	s17, d0
 2095              	.LVL151:
 2096              	.LBB806:
 2097              	.LBB807:
 2098              		.file 12 "c:\\program files\\daisytoolchain\\arm-none-eabi\\include\\c++\\10.2.1\\cmath"
   1:c:\program files\daisytoolchain\arm-none-eabi\include\c++\10.2.1\cmath **** // -*- C++ -*- C forwarding header.
   2:c:\program files\daisytoolchain\arm-none-eabi\include\c++\10.2.1\cmath **** 
   3:c:\program files\daisytoolchain\arm-none-eabi\include\c++\10.2.1\cmath **** // Copyright (C) 1997-2020 Free Software Foundation, Inc.
   4:c:\program files\daisytoolchain\arm-none-eabi\include\c++\10.2.1\cmath **** //
   5:c:\program files\daisytoolchain\arm-none-eabi\include\c++\10.2.1\cmath **** // This file is part of the GNU ISO C++ Library.  This library is free
   6:c:\program files\daisytoolchain\arm-none-eabi\include\c++\10.2.1\cmath **** // software; you can redistribute it and/or modify it under the
   7:c:\program files\daisytoolchain\arm-none-eabi\include\c++\10.2.1\cmath **** // terms of the GNU General Public License as published by the
   8:c:\program files\daisytoolchain\arm-none-eabi\include\c++\10.2.1\cmath **** // Free Software Foundation; either version 3, or (at your option)
   9:c:\program files\daisytoolchain\arm-none-eabi\include\c++\10.2.1\cmath **** // any later version.
  10:c:\program files\daisytoolchain\arm-none-eabi\include\c++\10.2.1\cmath **** 
  11:c:\program files\daisytoolchain\arm-none-eabi\include\c++\10.2.1\cmath **** // This library is distributed in the hope that it will be useful,
  12:c:\program files\daisytoolchain\arm-none-eabi\include\c++\10.2.1\cmath **** // but WITHOUT ANY WARRANTY; without even the implied warranty of
  13:c:\program files\daisytoolchain\arm-none-eabi\include\c++\10.2.1\cmath **** // MERCHANTABILITY or FITNESS FOR A PARTICULAR PURPOSE.  See the
  14:c:\program files\daisytoolchain\arm-none-eabi\include\c++\10.2.1\cmath **** // GNU General Public License for more details.
  15:c:\program files\daisytoolchain\arm-none-eabi\include\c++\10.2.1\cmath **** 
